(dp1
I0
S'stock'
p2
sI1
S'secplan'
p3
sI2
S'misbehaving'
p4
sI3
S'limited'
p5
sI4
S'magnetic'
p6
sI5
S'dynamic'
p7
sI6
S'externally'
p8
sI7
S'yellow'
p9
sI8
S'four'
p10
sI9
S'circuitry'
p11
sI10
S'discoverable'
p12
sI11
S'consists'
p13
sI12
S"peer's"
p14
sI13
S'saved'
p15
sI14
S'assembled'
p16
sI15
S'nwk'
p17
sI16
S'whose'
p18
sI17
S'ventilate'
p19
sI18
S'ceases'
p20
sI19
S'aggregations'
p21
sI20
S'unanswered'
p22
sI21
S'mistakes'
p23
sI22
S'under'
p24
sI23
S'dissolution'
p25
sI24
S'updated'
p26
sI25
S'shielding'
p27
sI26
S'performs'
p28
sI27
S'desirable'
p29
sI28
S'activation'
p30
sI29
S'non\xe2\x80\x90linearity'
p31
sI30
S'sco'
p32
sI31
S'rejoinnetwork'
p33
sI32
S'every'
p34
sI33
S'updates'
p35
sI34
S'summarized'
p36
sI35
S'voip'
p37
sI36
S'differentiated'
p38
sI37
S'receiving'
p39
sI38
S'internally'
p40
sI39
S'wooden'
p41
sI40
S'cause'
p42
sI41
S'solution'
p43
sI42
S'vmes'
p44
sI43
S'avalanches'
p45
sI44
S'tensile'
p46
sI45
S'succession'
p47
sI46
S'generalize'
p48
sI47
S'nonces'
p49
sI48
S'shows'
p50
sI49
S'heading'
p51
sI50
S'earth\xe2\x80\x90'
p52
sI51
S'force'
p53
sI52
S'black-anodizing'
p54
sI53
S'incremented'
p55
sI54
S'cabling'
p56
sI55
S'consistent'
p57
sI56
S'guidelines'
p58
sI57
S'shipper-supplier'
p59
sI58
S'direct'
p60
sI59
S'budget'
p61
sI60
S'\xce\xbcf'
p62
sI61
S'surrounding'
p63
sI62
S'second'
p64
sI63
S'49'
p65
sI64
S'dropped'
p66
sI65
S'rigorous'
p67
sI66
S'air'
p68
sI67
S'even'
p69
sI68
S'esomp'
p70
sI69
S'errors'
p71
sI70
S'schedulers'
p72
sI71
S'organisms'
p73
sI72
S'incompatible'
p74
sI73
S'acceptance-level'
p75
sI74
S'integrity'
p76
sI75
S'specification'
p77
sI76
S'selected'
p78
sI77
S'completion/confirmation'
p79
sI78
S'supplied'
p80
sI79
S'children'
p81
sI80
S'16384'
p82
sI81
S'above'
p83
sI82
S'designing'
p84
sI83
S'supplier'
p85
sI84
S'new'
p86
sI85
S'construction'
p87
sI86
S'increasing'
p88
sI87
S'transportkeydata'
p89
sI88
S'metadata'
p90
sI89
S'specialist'
p91
sI90
S'widget'
p92
sI91
S'maintains'
p93
sI92
S'simultaneously'
p94
sI93
S'mem'
p95
sI94
S'mechanisms'
p96
sI95
S'never'
p97
sI96
S'residual'
p98
sI97
S'here'
p99
sI98
S'automatic'
p100
sI99
S'ionization'
p101
sI100
S'refinement'
p102
sI101
S'deposition'
p103
sI102
S'protection'
p104
sI103
S'initialize'
p105
sI104
S'active'
p106
sI105
S'path'
p107
sI106
S'100'
p108
sI107
S'101'
p109
sI108
S'acceptor'
p110
sI109
S'dry'
p111
sI110
S'balance'
p112
sI111
S'suitably'
p113
sI112
S'auction'
p114
sI113
S'items'
p115
sI114
S'leaves'
p116
sI115
S'changed'
p117
sI116
S'completely'
p118
sI117
S'reports'
p119
sI118
S'taped'
p120
sI119
S'calculations'
p121
sI120
S'procedure'
p122
sI121
S'permit'
p123
sI122
S'suitable'
p124
sI123
S'changes'
p125
sI124
S'midway'
p126
sI125
S'fitting'
p127
sI126
S'diameter'
p128
sI127
S'secure'
p129
sI128
S'campaign'
p130
sI129
S'tr'
p131
sI130
S'serialize'
p132
sI131
S'highly'
p133
sI132
S'visible'
p134
sI133
S'modulated'
p135
sI134
S'non-graphical'
p136
sI135
S'achievable'
p137
sI136
S'clearance-based'
p138
sI137
S'2ei'
p139
sI138
S'stand'
p140
sI139
S'total'
p141
sI140
S'byte'
p142
sI141
S'unit'
p143
sI142
S'plot'
p144
sI143
S'would'
p145
sI144
S'bufferseq'
p146
sI145
S'browse'
p147
sI146
S'nine'
p148
sI147
S'decimal'
p149
sI148
S'mortality'
p150
sI149
S'bundles'
p151
sI150
S'negative'
p152
sI151
S'tenders'
p153
sI152
S'e0'
p154
sI153
S'discrepancies'
p155
sI154
S'173.185'
p156
sI155
S'6200'
p157
sI156
S'therefore'
p158
sI157
S'spike'
p159
sI158
S'type'
p160
sI159
S'until'
p161
sI160
S'separated'
p162
sI161
S'derated'
p163
sI162
S'segment-level'
p164
sI163
S'standardized'
p165
sI164
S'composite'
p166
sI165
S'traceable'
p167
sI166
S"receiver's"
p168
sI167
S'curvature'
p169
sI168
S'glass'
p170
sI169
S'srej_sent'
p171
sI170
S'corrosion'
p172
sI171
S'real-time'
p173
sI172
S'organic'
p174
sI173
S'hole'
p175
sI174
S'hold'
p176
sI175
S'tariff'
p177
sI176
S'supplemental'
p178
sI177
S'must'
p179
sI178
S'worst'
p180
sI179
S'word'
p181
sI180
S'permits'
p182
sI181
S'mm'
p183
sI182
S'\xc2\xb5s'
p184
sI183
S'setup'
p185
sI184
S'work'
p186
sI185
S'show'
p187
sI186
S'roof'
p188
sI187
S'theories'
p189
sI188
S'oxide'
p190
sI189
S'eclss'
p191
sI190
S'b1/b2/c/d'
p192
sI191
S'temperatures'
p193
sI192
S'ms'
p194
sI193
S'determining'
p195
sI194
S'exceptions'
p196
sI195
S'rssi'
p197
sI196
S'elastomers'
p198
sI197
S'revenues'
p199
sI198
S'root'
p200
sI199
S'example'
p201
sI200
S'photospheric'
p202
sI201
S'watertight'
p203
sI202
S's_fanon'
p204
sI203
S'indicated'
p205
sI204
S'give'
p206
sI205
S'bilaterally'
p207
sI206
S'validates'
p208
sI207
S'had'
p209
sI208
S'gcp'
p210
sI209
S'caution'
p211
sI210
S'reviewing'
p212
sI211
S'want'
p213
sI212
S'conditioner'
p214
sI213
S'scheduling'
p215
sI214
S'validated'
p216
sI215
S'-6v'
p217
sI216
S'absolute'
p218
sI217
S'preferably'
p219
sI218
S'end'
p220
sI219
S'recovery'
p221
sI220
S'carriers'
p222
sI221
S'provide'
p223
sI222
S'verify'
p224
sI223
S'sharepoint'
p225
sI224
S'feature'
p226
sI225
S'recovers'
p227
sI226
S'machine'
p228
sI227
S'very'
p229
sI228
S'hot'
p230
sI229
S'adjacent'
p231
sI230
S'significance'
p232
sI231
S'separator'
p233
sI232
S'widespread'
p234
sI233
S'charging'
p235
sI234
S'blanks'
p236
sI235
S'description'
p237
sI236
S'oob'
p238
sI237
S'modulation'
p239
sI238
S'manuals'
p240
sI239
S'after'
p241
sI240
S'containing'
p242
sI241
S'customs'
p243
sI242
S'diagram'
p244
sI243
S'barriers'
p245
sI244
S'mesh'
p246
sI245
S'sy2020'
p247
sI246
S'mortars'
p248
sI247
S'minimizes'
p249
sI248
S'dough'
p250
sI249
S'arch'
p251
sI250
S'parallel'
p252
sI251
S'types'
p253
sI252
S'baseline'
p254
sI253
S'repeats'
p255
sI254
S'attempt'
p256
sI255
S'1280'
p257
sI256
S'effective'
p258
sI257
S'acknowledged'
p259
sI258
S'6.4.2'
p260
sI259
S'complexity'
p261
sI260
S'maintain'
p262
sI261
S'algorithms'
p263
sI262
S'ultimate'
p264
sI263
S'enter'
p265
sI264
S'eirp'
p266
sI265
S'operate'
p267
sI266
S'order'
p268
sI267
S'operations'
p269
sI268
S'determinate'
p270
sI269
S'executed'
p271
sI270
S'office'
p272
sI271
S'wut'
p273
sI272
S'electromagnetic'
p274
sI273
S'over'
p275
sI274
S'vary'
p276
sI275
S'undetected'
p277
sI276
S'6.7'
p278
sI277
S'6.6'
p279
sI278
S'6.4'
p280
sI279
S'executes'
p281
sI280
S'oven'
p282
sI281
S'stockpiles'
p283
sI282
S'fidelity'
p284
sI283
S'tololo'
p285
sI284
S'before'
p286
sI285
S'fir'
p287
sI286
S'fittings'
p288
sI287
S'uuid'
p289
sI288
S'fit'
p290
sI289
S'undervoltage'
p291
sI290
S'succeeds'
p292
sI291
S'thrust'
p293
sI292
S','
sI293
S'writing'
p294
sI294
S'better'
p295
sI295
S'production'
p296
sI296
S'securely'
p297
sI297
S'discharges'
p298
sI298
S'weeks'
p299
sI299
S'16-bit'
p300
sI300
S'overcome'
p301
sI301
S'tbd-l2-gw-069'
p302
sI302
S'versus'
p303
sI303
S'then'
p304
sI304
S'them'
p305
sI305
S'affected'
p306
sI306
S'deletion'
p307
sI307
S'combination'
p308
sI308
S'prevented'
p309
sI309
S'similar'
p310
sI310
S'safe'
p311
sI311
S'32kw'
p312
sI312
S'finish'
p313
sI313
S'break'
p314
sI314
S'band'
p315
sI315
S'caterpillar'
p316
sI316
S'penetration'
p317
sI317
S'effects'
p318
sI318
S'they'
p319
sI319
S'interrupt'
p320
sI320
S'advise'
p321
sI321
S'structural'
p322
sI322
S'unregistered'
p323
sI323
S'netherlands'
p324
sI324
S'oxygen'
p325
sI325
S'notified'
p326
sI326
S'queues'
p327
sI327
S'classified'
p328
sI328
S'reconditioning'
p329
sI329
S'bd_addr'
p330
sI330
S'rocks'
p331
sI331
S'cmg'
p332
sI332
S'filling'
p333
sI333
S'timeout'
p334
sI334
S'each'
p335
sI335
S'acoustic'
p336
sI336
S'interfering'
p337
sI337
S'side'
p338
sI338
S'bond'
p339
sI339
S'magnetometer'
p340
sI340
S'repairs'
p341
sI341
S'suspended'
p342
sI342
S'meets'
p343
sI343
S'series'
p344
sI344
S'browsegroupdescriptorserviceclassid'
p345
sI345
S'satellite'
p346
sI346
S'applicable'
p347
sI347
S'contracting'
p348
sI348
S'passwords'
p349
sI349
S'gating'
p350
sI350
S'laboratory'
p351
sI351
S'mdp'
p352
sI352
S'humidity'
p353
sI353
S'collector'
p354
sI354
S'array'
p355
sI355
S'revisions'
p356
sI356
S'trench'
p357
sI357
S'reused'
p358
sI358
S'network'
p359
sI359
S'spec'
p360
sI360
S'gradient'
p361
sI361
S'restricted'
p362
sI362
S'rx'
p363
sI363
S'vessels'
p364
sI364
S'content'
p365
sI365
S'dso'
p366
sI366
S'rf'
p367
sI367
S'adjust'
p368
sI368
S'collocated'
p369
sI369
S'size'
p370
sI370
S'forth'
p371
sI371
S'sliding'
p372
sI372
S'splashed'
p373
sI373
S'decision-making'
p374
sI374
S'non-destructive'
p375
sI375
S'barrier'
p376
sI376
S'personal'
p377
sI377
S'slack'
p378
sI378
S'voltages'
p379
sI379
S'free'
p380
sI380
S'ascending'
p381
sI381
S'k=223'
p382
sI382
S'fastening'
p383
sI383
S'sheet'
p384
sI384
S'sensors'
p385
sI385
S'wanted'
p386
sI386
S'certified'
p387
sI387
S'publication'
p388
sI388
S'conform'
p389
sI389
S'incorporates'
p390
sI390
S'logging'
p391
sI391
S'atc'
p392
sI392
S'created'
p393
sI393
S'iss'
p394
sI394
S'starts'
p395
sI395
S'messages'
p396
sI396
S'days'
p397
sI397
S'priorities'
p398
sI398
S'bimetallic'
p399
sI399
S'creates'
p400
sI400
S'att'
p401
sI401
S'disturbed'
p402
sI402
S'iso'
p403
sI403
S'incorporated'
p404
sI404
S'uses'
p405
sI405
S'+8'
p406
sI406
S'onto'
p407
sI407
S'purpose'
p408
sI408
S'already'
p409
sI409
S'features'
p410
sI410
S'grade'
p411
sI411
S'traveller'
p412
sI412
S'coding'
p413
sI413
S'primary'
p414
sI414
S'thereof'
p415
sI415
S'visited'
p416
sI416
S'channels'
p417
sI417
S'clear'
p418
sI418
S'instruct'
p419
sI419
S'photo\xe2\x80\x90emission'
p420
sI420
S'another'
p421
sI421
S'insulation'
p422
sI422
S'plastic'
p423
sI423
S'electronic'
p424
sI424
S'payload'
p425
sI425
S'survivability'
p426
sI426
S'centrifuge'
p427
sI427
S'stimulation'
p428
sI428
S'rated'
p429
sI429
S'service'
p430
sI430
S'attach'
p431
sI431
S'0.02'
p432
sI432
S'opportunity'
p433
sI433
S'top'
p434
sI434
S'approximately'
p435
sI435
S'stack'
p436
sI436
S'needed'
p437
sI437
S'rates'
p438
sI438
S'observations'
p439
sI439
S'ranging'
p440
sI440
S'listen'
p441
sI441
S'manufacture'
p442
sI442
S'ceiling'
p443
sI443
S'collapse'
p444
sI444
S'discussion'
p445
sI445
S'estimates'
p446
sI446
S'tool'
p447
sI447
S'semi-quantitative'
p448
sI448
S'rejected'
p449
sI449
S'dut'
p450
sI450
S'rectified'
p451
sI451
S'repeatable'
p452
sI452
S'in_rand'
p453
sI453
S'multiplexed'
p454
sI454
S'brushed'
p455
sI455
S'r\xe2\x80\x90s'
p456
sI456
S'begins'
p457
sI457
S'distance'
p458
sI458
S'target'
p459
sI459
S'roles'
p460
sI460
S'momentum'
p461
sI461
S'structures'
p462
sI462
S'older'
p463
sI463
S'tree'
p464
sI464
S'zero'
p465
sI465
S'mmdd'
p466
sI466
S'cite'
p467
sI467
S'project'
p468
sI468
S'timeouts'
p469
sI469
S'solomon'
p470
sI470
S'classes'
p471
sI471
S'flame'
p472
sI472
S'iron'
p473
sI473
S'timescales'
p474
sI474
S'enables'
p475
sI475
S'acquisition'
p476
sI476
S'event_mask_page_2'
p477
sI477
S'lbs'
p478
sI478
S'lbr'
p479
sI479
S'sees'
p480
sI480
S'respecting'
p481
sI481
S'navigate'
p482
sI482
S'torque'
p483
sI483
S'spectrum'
p484
sI484
S'unicast'
p485
sI485
S'lbb'
p486
sI486
S'manner'
p487
sI487
S'contents'
p488
sI488
S'relatively'
p489
sI489
S'latency'
p490
sI490
S'strength'
p491
sI491
S'mostly'
p492
sI492
S'relayed'
p493
sI493
S'thoroughly'
p494
sI494
S'latter'
p495
sI495
S'-'
sI496
S'isolated'
p496
sI497
S'indexes'
p497
sI498
S'sound'
p498
sI499
S'recommended'
p499
sI500
S'contact'
p500
sI501
S'absorbed'
p501
sI502
S'payloads'
p502
sI503
S'transmit'
p503
sI504
S'circles'
p504
sI505
S'insulated'
p505
sI506
S'unoccupied'
p506
sI507
S'shall'
p507
sI508
S'object'
p508
sI509
S'exercised'
p509
sI510
S'preset'
p510
sI511
S'germany'
p511
sI512
S'plenty'
p512
sI513
S'organization'
p513
sI514
S'retaining'
p514
sI515
S'assessed'
p515
sI516
S'lithium'
p516
sI517
S'within-page'
p517
sI518
S'dummy'
p518
sI519
S'mitigate'
p519
sI520
S'u+0030'
p520
sI521
S'4.1.2'
p521
sI522
S'pressurized'
p522
sI523
S'calculated'
p523
sI524
S'lose'
p524
sI525
S'm'
sI526
S'dod'
p525
sI527
S'accounted'
p526
sI528
S'cryogenic'
p527
sI529
S'i-frame'
p528
sI530
S'enterprise'
p529
sI531
S'contractor\xe2\x80\x99s'
p530
sI532
S'doesn\xe2\x80\x99t'
p531
sI533
S'consumer'
p532
sI534
S'section'
p533
sI535
S'incomplete'
p534
sI536
S'reserve'
p535
sI537
S'wild'
p536
sI538
S'analysed'
p537
sI539
S'signatures'
p538
sI540
S'contacted'
p539
sI541
S'preproduction'
p540
sI542
S'meetings'
p541
sI543
S'random'
p542
sI544
S'nominated'
p543
sI545
S'infrared'
p544
sI546
S'desaturations'
p545
sI547
S'attempts'
p546
sI548
S'manufacturer\xe2\x80\x99s'
p547
sI549
S'radio'
p548
sI550
S'solutions'
p549
sI551
S'participate'
p550
sI552
S'earth'
p551
sI553
S'analogue'
p552
sI554
S'rescheduling'
p553
sI555
S'submit'
p554
sI556
S'clicked'
p555
sI557
S'just'
p556
sI558
S'implementation'
p557
sI559
S'menu'
p558
sI560
S'guidance'
p559
sI561
S'commence'
p560
sI562
S'touched'
p561
sI563
S'adequate'
p562
sI564
S'5.5.3.1'
p563
sI565
S'do'
p564
sI566
S'mixture'
p565
sI567
S'fault/break'
p566
sI568
S'400'
p567
sI569
S'wide'
p568
sI570
S'pre-empt'
p569
sI571
S'chromosphere'
p570
sI572
S'stop'
p571
sI573
S'dc'
p572
sI574
S'preferred'
p573
sI575
S'degradation'
p574
sI576
S'redshift'
p575
sI577
S'enters'
p576
sI578
S'12'
p577
sI579
S'pre-tinned'
p578
sI580
S'crewed'
p579
sI581
S'pallets'
p580
sI582
S'supplies'
p581
sI583
S'report'
p582
sI584
S'impractical'
p583
sI585
S'blistered'
p584
sI586
S'comply'
p585
sI587
S'dq'
p586
sI588
S'cleanly'
p587
sI589
S'runs'
p588
sI590
S'on-board'
p589
sI591
S'emc'
p590
sI592
S'braze'
p591
sI593
S'fields'
p592
sI594
S'accordance'
p593
sI595
S's/pdif'
p594
sI596
S'targetaddress'
p595
sI597
S'bag'
p596
sI598
S'intervals'
p597
sI599
S'emp'
p598
sI600
S'radiators'
p599
sI601
S'analytical'
p600
sI602
S'apsme'
p601
sI603
S'steal'
p602
sI604
S'respond'
p603
sI605
S'mandatory'
p604
sI606
S'reference'
p605
sI607
S'reported'
p606
sI608
S'testing'
p607
sI609
S'deemed'
p608
sI610
S'observed'
p609
sI611
S'analytics'
p610
sI612
S'electrostatic'
p611
sI613
S'radius'
p612
sI614
S'bed'
p613
sI615
S'corrupt'
p614
sI616
S'spattered'
p615
sI617
S'hammer'
p616
sI618
S'best'
p617
sI619
S'subject'
p618
sI620
S'said'
p619
sI621
S'capacity'
p620
sI622
S'inappropriate'
p621
sI623
S'polyimide'
p622
sI624
S'propulsion'
p623
sI625
S'rings'
p624
sI626
S'yet'
p625
sI627
S'mud'
p626
sI628
S'stamps'
p627
sI629
S'unable'
p628
sI630
S'proofing'
p629
sI631
S'conductive'
p630
sI632
S'drawn'
p631
sI633
S'encounters'
p632
sI634
S'discovery'
p633
sI635
S'we'
p634
sI636
S'terms'
p635
sI637
S'relative'
p636
sI638
S'nature'
p637
sI639
S'rolled'
p638
sI640
S'modify'
p639
sI641
S'however'
p640
sI642
S'cut'
p641
sI643
S'wear'
p642
sI644
S'extent'
p643
sI645
S'contamination'
p644
sI646
S'carbon'
p645
sI647
S'atoms'
p646
sI648
S'improve'
p647
sI649
S'received'
p648
sI650
S'protect'
p649
sI651
S'providing'
p650
sI652
S'b.7.1'
p651
sI653
S'triggers'
p652
sI654
S'resistant'
p653
sI655
S'country'
p654
sI656
S'adapter'
p655
sI657
S'vibration'
p656
sI658
S'against'
p657
sI659
S'prefabricated'
p658
sI660
S'planned'
p659
sI661
S'receives'
p660
sI662
S'receiver'
p661
sI663
S'exceeds'
p662
sI664
S'variance'
p663
sI665
S'requests'
p664
sI666
S'expense'
p665
sI667
S'disappears'
p666
sI668
S'asked'
p667
sI669
S'uuids'
p668
sI670
S'pre'
p669
sI671
S'alternate'
p670
sI672
S'tpro'
p671
sI673
S'represented'
p672
sI674
S'applicability'
p673
sI675
S'drilled'
p674
sI676
S'wider'
p675
sI677
S'loaded'
p676
sI678
S'250'
p677
sI679
S'organisational'
p678
sI680
S'telecommunications'
p679
sI681
S'cert_test_root'
p680
sI682
S'strong'
p681
sI683
S'tolerances'
p682
sI684
S'basis'
p683
sI685
S'exceeded'
p684
sI686
S'three'
p685
sI687
S'been'
p686
sI688
S'.'
sI689
S'formwork'
p687
sI690
S'much'
p688
sI691
S'age-drop'
p689
sI692
S'interest'
p690
sI693
S'basic'
p691
sI694
S'expected'
p692
sI695
S'entered'
p693
sI696
S'topics'
p694
sI697
S'website'
p695
sI698
S'obtained'
p696
sI699
S'life'
p697
sI700
S're-assessed'
p698
sI701
S'concerning'
p699
sI702
S"entry's"
p700
sI703
S'affixed'
p701
sI704
S'pointing'
p702
sI705
S'attacker'
p703
sI706
S'coherent'
p704
sI707
S'confinement'
p705
sI708
S'child'
p706
sI709
S'mcu'
p707
sI710
S'spin'
p708
sI711
S'diverted'
p709
sI712
S'applied'
p710
sI713
S'explicitly'
p711
sI714
S'exception'
p712
sI715
S'launcher'
p713
sI716
S'launches'
p714
sI717
S'commandreject'
p715
sI718
S'connectors'
p716
sI719
S'reverted'
p717
sI720
S'employ'
p718
sI721
S'near'
p719
sI722
S'dashboard'
p720
sI723
S'applies'
p721
sI724
S'property'
p722
sI725
S'sla'
p723
sI726
S'launched'
p724
sI727
S'extruder'
p725
sI728
S'facetable'
p726
sI729
S'compliance'
p727
sI730
S'allows'
p728
sI731
S'is'
p729
sI732
S'ir'
p730
sI733
S'it'
p731
sI734
S'welded'
p732
sI735
S'ii'
p733
sI736
S'tissue'
p734
sI737
S'experts'
p735
sI738
S'exterior'
p736
sI739
S'in'
p737
sI740
S'synchronisation'
p738
sI741
S'uplift'
p739
sI742
S'ducting'
p740
sI743
S'ie'
p741
sI744
S'id'
p742
sI745
S'diagnostic'
p743
sI746
S'if'
p744
sI747
S'confirmed'
p745
sI748
S'constrained'
p746
sI749
S'cools'
p747
sI750
S'perform'
p748
sI751
S'variations'
p749
sI752
S'make'
p750
sI753
S'transfers'
p751
sI754
S'plated'
p752
sI755
S'levelled'
p753
sI756
S'complex'
p754
sI757
S'split'
p755
sI758
S'l2cap'
p756
sI759
S'several'
p757
sI760
S'showing'
p758
sI761
S'crevices'
p759
sI762
S'european'
p760
sI763
S'wheel'
p761
sI764
S'independent'
p762
sI765
S'plating'
p763
sI766
S'kiq'
p764
sI767
S'numerical'
p765
sI768
S'rail'
p766
sI769
S'conversion'
p767
sI770
S'nid'
p768
sI771
S'\xef\xac\x81eld'
p769
sI772
S'waterfall'
p770
sI773
S'i-'
p771
sI774
S'inadvertent'
p772
sI775
S'characters'
p773
sI776
S'vibrated'
p774
sI777
S'protected'
p775
sI778
S'5.3.3'
p776
sI779
S'cycle'
p777
sI780
S'simulates'
p778
sI781
S'prescribed'
p779
sI782
S'drb'
p780
sI783
S'kept'
p781
sI784
S'scenario'
p782
sI785
S'programs'
p783
sI786
S'a.5.7.3.1'
p784
sI787
S'prioritize'
p785
sI788
S'a.5.7.3.3'
p786
sI789
S'physical_link_handle'
p787
sI790
S'datasheets'
p788
sI791
S'cancellation'
p789
sI792
S'client'
p790
sI793
S'greatest'
p791
sI794
S'simulated'
p792
sI795
S'quantitative'
p793
sI796
S'the'
p794
sI797
S'left'
p795
sI798
S'stringent'
p796
sI799
S'protocol'
p797
sI800
S'proposed'
p798
sI801
S'sentence'
p799
sI802
S'photo'
p800
sI803
S'starting'
p801
sI804
S'stimulations'
p802
sI805
S'crewmember'
p803
sI806
S'assigned'
p804
sI807
S'proposes'
p805
sI808
S'bandwidth'
p806
sI809
S'identify'
p807
sI810
S'0x02'
p808
sI811
S'human'
p809
sI812
S'integer'
p810
sI813
S'clamped'
p811
sI814
S'functionally'
p812
sI815
S'previous'
p813
sI816
S'biome'
p814
sI817
S'unique'
p815
sI818
S'monitored'
p816
sI819
S'classification'
p817
sI820
S'mix'
p818
sI821
S'elc'
p819
sI822
S'character'
p820
sI823
S'mask'
p821
sI824
S'passive'
p822
sI825
S'requestor'
p823
sI826
S'n'
sI827
S'board'
p824
sI828
S'non-operational'
p825
sI829
S'placeholders'
p826
sI830
S'has'
p827
sI831
S'plasma'
p828
sI832
S'haw'
p829
sI833
S'10\xc2\xbac'
p830
sI834
S'elevation'
p831
sI835
S'tubing/conduit'
p832
sI836
S'bands'
p833
sI837
S'breaks'
p834
sI838
S'credit'
p835
sI839
S'disagreement'
p836
sI840
S'possible'
p837
sI841
S'caps'
p838
sI842
S'possibly'
p839
sI843
S'fusion'
p840
sI844
S'survival'
p841
sI845
S'pertinent'
p842
sI846
S'sefi'
p843
sI847
S'apart'
p844
sI848
S'utilisation'
p845
sI849
S'performing'
p846
sI850
S'manual'
p847
sI851
S'50'
p848
sI852
S'soap'
p849
sI853
S'specific'
p850
sI854
S'renamed'
p851
sI855
S'steps'
p852
sI856
S'officer'
p853
sI857
S'rarely'
p854
sI858
S'bucket'
p855
sI859
S'security'
p856
sI860
S'reactive'
p857
sI861
S'continuation'
p858
sI862
S'-35'
p859
sI863
S'towards'
p860
sI864
S'webb'
p861
sI865
S'input_coding_format'
p862
sI866
S'right'
p863
sI867
S'old'
p864
sI868
S'sends'
p865
sI869
S'resonances'
p866
sI870
S'successfully'
p867
sI871
S'deflection'
p868
sI872
S'worst\xe2\x80\x90case'
p869
sI873
S'encumbrances'
p870
sI874
S'paragraphs'
p871
sI875
S'lsb'
p872
sI876
S'extended'
p873
sI877
S'repeated'
p874
sI878
S'library'
p875
sI879
S'vda'
p876
sI880
S'orbiter'
p877
sI881
S'fop'
p878
sI882
S'tracked'
p879
sI883
S'for'
p880
sI884
S'fos'
p881
sI885
S'notification'
p882
sI886
S'maps'
p883
sI887
S'normal'
p884
sI888
S'non-ductile'
p885
sI889
S'track'
p886
sI890
S'individuals'
p887
sI891
S'yields'
p888
sI892
S'cerro'
p889
sI893
S'plan\xe2\x80\x99s'
p890
sI894
S'coordinator'
p891
sI895
S'core'
p892
sI896
S'shaker'
p893
sI897
S'expires'
p894
sI898
S'peel'
p895
sI899
S'deleted'
p896
sI900
S'pose'
p897
sI901
S'illustration'
p898
sI902
S'quaternion'
p899
sI903
S'substituted'
p900
sI904
S'bolt'
p901
sI905
S'architectural'
p902
sI906
S'losing'
p903
sI907
S'flaws'
p904
sI908
S'post'
p905
sI909
S'manufacturing'
p906
sI910
S'super'
p907
sI911
S'properties'
p908
sI912
S'astm'
p909
sI913
S'chapter'
p910
sI914
S'protoflight'
p911
sI915
S'5\xe2\x80\x903'
p912
sI916
S'months'
p913
sI917
S'anomalous'
p914
sI918
S'undocumented'
p915
sI919
S'plus'
p916
sI920
S'terminology'
p917
sI921
S'observe'
p918
sI922
S'propagate'
p919
sI923
S'permission'
p920
sI924
S'runtime'
p921
sI925
S'objectives'
p922
sI926
S'automatically'
p923
sI927
S'match'
p924
sI928
S'considerations'
p925
sI929
S'primitive'
p926
sI930
S'destination'
p927
sI931
S'ppe'
p928
sI932
S'facility'
p929
sI933
S'washed'
p930
sI934
S'successive'
p931
sI935
S'rotations'
p932
sI936
S'sketch'
p933
sI937
S'two'
p934
sI938
S'down'
p935
sI939
S'sos'
p936
sI940
S'4.12'
p937
sI941
S'wrap'
p938
sI942
S'exchanges'
p939
sI943
S'often'
p940
sI944
S'existed'
p941
sI945
S'rely'
p942
sI946
S'analytically'
p943
sI947
S'compression'
p944
sI948
S'segment'
p945
sI949
S'support'
p946
sI950
S'initial'
p947
sI951
S'knowing'
p948
sI952
S'inspected'
p949
sI953
S'width'
p950
sI954
S'accordingly'
p951
sI955
S'authorized'
p952
sI956
S'way'
p953
sI957
S'ballistic'
p954
sI958
S'call'
p955
sI959
S'probes'
p956
sI960
S'was'
p957
sI961
S'lowest'
p958
sI962
S'alloys'
p959
sI963
S'medium'
p960
sI964
S'gaseous'
p961
sI965
S'offering'
p962
sI966
S'manufacturers'
p963
sI967
S'differences'
p964
sI968
S'removes'
p965
sI969
S'hdmi'
p966
sI970
S'encoder'
p967
sI971
S'idealized'
p968
sI972
S'failure'
p969
sI973
S'heat'
p970
sI974
S'solar'
p971
sI975
S'decoder'
p972
sI976
S'sustained'
p973
sI977
S'removed'
p974
sI978
S'true'
p975
sI979
S'connectionless'
p976
sI980
S'week'
p977
sI981
S'bypassing'
p978
sI982
S'responding'
p979
sI983
S're-establishing'
p980
sI984
S'self\xe2\x80\x90sustained'
p981
sI985
S'assessment'
p982
sI986
S'his/her'
p983
sI987
S'clause'
p984
sI988
S'maximum'
p985
sI989
S'devices'
p986
sI990
S'mtu'
p987
sI991
S'critical'
p988
sI992
S'how'
p989
sI993
S'lsas'
p990
sI994
S'optimisation'
p991
sI995
S'correspond'
p992
sI996
S'delete'
p993
sI997
S'150'
p994
sI998
S'khz'
p995
sI999
S'aerodrome'
p996
sI1000
S'stronger'
p997
sI1001
S'decrypt'
p998
sI1002
S'unsaved'
p999
sI1003
S'covers'
p1000
sI1004
S'evidence'
p1001
sI1005
S'proves'
p1002
sI1006
S'exist'
p1003
sI1007
S'simulations'
p1004
sI1008
S'floating'
p1005
sI1009
S'correlation'
p1006
sI1010
S'check'
p1007
sI1011
S'physical'
p1008
sI1012
S'encrypt'
p1009
sI1013
S'controlarea.netinterchange'
p1010
sI1014
S'floor'
p1011
sI1015
S'agreeing'
p1012
sI1016
S'15ms'
p1013
sI1017
S'when'
p1014
sI1018
S'actor'
p1015
sI1019
S'fuse'
p1016
sI1020
S'successful'
p1017
sI1021
S'falsely'
p1018
sI1022
S'rmps'
p1019
sI1023
S'200ms'
p1020
sI1024
S'test'
p1021
sI1025
S'eclipse'
p1022
sI1026
S'developers'
p1023
sI1027
S'ksc-gp-864'
p1024
sI1028
S'ui01'
p1025
sI1029
S'tpse'
p1026
sI1030
S'delivered'
p1027
sI1031
S'models'
p1028
sI1032
S'preceding'
p1029
sI1033
S'felt'
p1030
sI1034
S'update'
p1031
sI1035
S'transported'
p1032
sI1036
S'or/and'
p1033
sI1037
S'intent'
p1034
sI1038
S'ridges'
p1035
sI1039
S'variable'
p1036
sI1040
S'discharge'
p1037
sI1041
S'flushed'
p1038
sI1042
S'stops'
p1039
sI1043
S'lm'
p1040
sI1044
S'mildly'
p1041
sI1045
S'longer'
p1042
sI1046
S'initiates'
p1043
sI1047
S'assume'
p1044
sI1048
S'interval'
p1045
sI1049
S'packets'
p1046
sI1050
S'together'
p1047
sI1051
S'cohesion'
p1048
sI1052
S'5\xe2\x80\x9030'
p1049
sI1053
S'5\xe2\x80\x9031'
p1050
sI1054
S'text'
p1051
sI1055
S'reception'
p1052
sI1056
S'time'
p1053
sI1057
S'neighbors'
p1054
sI1058
S'attribute\xe2\x80\x99s'
p1055
sI1059
S'managed'
p1056
sI1060
S'chain'
p1057
sI1061
S'switched'
p1058
sI1062
S'varying'
p1059
sI1063
S'activated'
p1060
sI1064
S'primed'
p1061
sI1065
S'segr'
p1062
sI1066
S'switches'
p1063
sI1067
S'manager'
p1064
sI1068
S'supplement'
p1065
sI1069
S'15189'
p1066
sI1070
S'discharging'
p1067
sI1071
S'post-vibration'
p1068
sI1072
S'row'
p1069
sI1073
S'layers'
p1070
sI1074
S'varnish'
p1071
sI1075
S'reconfigured'
p1072
sI1076
S'grapples'
p1073
sI1077
S'mallet'
p1074
sI1078
S'95'
p1075
sI1079
S'flash'
p1076
sI1080
S'environment'
p1077
sI1081
S'0'
sI1082
S'charge'
p1078
sI1083
S'biotope'
p1079
sI1084
S'contaminant'
p1080
sI1085
S'aircraft-obstacle'
p1081
sI1086
S'circumstances'
p1082
sI1087
S'likely'
p1083
sI1088
S'sizing'
p1084
sI1089
S'protective'
p1085
sI1090
S'lre'
p1086
sI1091
S'string'
p1087
sI1092
S'frequencies'
p1088
sI1093
S'none'
p1089
sI1094
S'choice'
p1090
sI1095
S'entries'
p1091
sI1096
S'join'
p1092
sI1097
S'launchers'
p1093
sI1098
S'mil-'
p1094
sI1099
S'exact'
p1095
sI1100
S'minute'
p1096
sI1101
S'flammable'
p1097
sI1102
S'swapping'
p1098
sI1103
S'level'
p1099
sI1104
S'tear'
p1100
sI1105
S'drainage'
p1101
sI1106
S'relifing'
p1102
sI1107
S'0x0003'
p1103
sI1108
S'disease'
p1104
sI1109
S'standards'
p1105
sI1110
S'magnet'
p1106
sI1111
S'item'
p1107
sI1112
S'4.3.4'
p1108
sI1113
S'p-bit'
p1109
sI1114
S'cross-load-frequency'
p1110
sI1115
S'team'
p1111
sI1116
S'quick'
p1112
sI1117
S'loads'
p1113
sI1118
S'round'
p1114
sI1119
S'unaware'
p1115
sI1120
S'drawings'
p1116
sI1121
S'read_all_flag'
p1117
sI1122
S'upper'
p1118
sI1123
S'trend'
p1119
sI1124
S'dealing'
p1120
sI1125
S'p=1'
p1121
sI1126
S'sign'
p1122
sI1127
S'20ms'
p1123
sI1128
S'cost'
p1124
sI1129
S'worn'
p1125
sI1130
S'patient'
p1126
sI1131
S'port'
p1127
sI1132
S'spectral'
p1128
sI1133
S'inhibits'
p1129
sI1134
S'repository'
p1130
sI1135
S'axes'
p1131
sI1136
S'current'
p1132
sI1137
S'axial'
p1133
sI1138
S'health'
p1134
sI1139
S'goes'
p1135
sI1140
S'reply'
p1136
sI1141
S'principal'
p1137
sI1142
S'boost'
p1138
sI1143
S'bearers'
p1139
sI1144
S'filled'
p1140
sI1145
S'piconet'
p1141
sI1146
S'satisfy'
p1142
sI1147
S'slot'
p1143
sI1148
S'record\xe2\x80\x99s'
p1144
sI1149
S'transportation'
p1145
sI1150
S'install'
p1146
sI1151
S'confirmation'
p1147
sI1152
S'\xc2\xb5m'
p1148
sI1153
S'broadcasts'
p1149
sI1154
S'water'
p1150
sI1155
S'splice'
p1151
sI1156
S'address'
p1152
sI1157
S'['
sI1158
S'appears'
p1153
sI1159
S'change'
p1154
sI1160
S'box'
p1155
sI1161
S'sending'
p1156
sI1162
S'incoming'
p1157
sI1163
S'institute'
p1158
sI1164
S'overrides'
p1159
sI1165
S'generator'
p1160
sI1166
S'transmit_bandwidth'
p1161
sI1167
S'timings'
p1162
sI1168
S're-sequence'
p1163
sI1169
S'accomplished'
p1164
sI1170
S'multicast'
p1165
sI1171
S'resonance'
p1166
sI1172
S'navigation'
p1167
sI1173
S"frame's"
p1168
sI1174
S'ipc'
p1169
sI1175
S'tasks'
p1170
sI1176
S'useful'
p1171
sI1177
S'ions'
p1172
sI1178
S'problematic'
p1173
sI1179
S'fissures'
p1174
sI1180
S'logical'
p1175
sI1181
S'peer'
p1176
sI1182
S'vma2'
p1177
sI1183
S'ians'
p1178
sI1184
S'operational'
p1179
sI1185
S'market'
p1180
sI1186
S'terminal'
p1181
sI1187
S'synchronized'
p1182
sI1188
S'working'
p1183
sI1189
S'prove'
p1184
sI1190
S'turret'
p1185
sI1191
S'positive'
p1186
sI1192
S'l2cap_connectrsp'
p1187
sI1193
S'scan'
p1188
sI1194
S'predictions'
p1189
sI1195
S'permitted'
p1190
sI1196
S'connector'
p1191
sI1197
S'handles'
p1192
sI1198
S'approach'
p1193
sI1199
S'opposed'
p1194
sI1200
S'criteria'
p1195
sI1201
S'black'
p1196
sI1202
S'selects'
p1197
sI1203
S'cited'
p1198
sI1204
S'egse'
p1199
sI1205
S'sharing'
p1200
sI1206
S'conductor'
p1201
sI1207
S'human-rated'
p1202
sI1208
S'incident'
p1203
sI1209
S'outputs'
p1204
sI1210
S'perfocmed'
p1205
sI1211
S'apparent'
p1206
sI1212
S'validity'
p1207
sI1213
S'approving'
p1208
sI1214
S'invalidates'
p1209
sI1215
S'visual'
p1210
sI1216
S'appendix'
p1211
sI1217
S'rigid'
p1212
sI1218
S'degrade'
p1213
sI1219
S'corresponding'
p1214
sI1220
S'cases'
p1215
sI1221
S'verified'
p1216
sI1222
S'effort'
p1217
sI1223
S'auditors'
p1218
sI1224
S'behalf'
p1219
sI1225
S'self-assign'
p1220
sI1226
S'fly'
p1221
sI1227
S'graphic'
p1222
sI1228
S'indicates'
p1223
sI1229
S'slcci'
p1224
sI1230
S'modified'
p1225
sI1231
S'reviews'
p1226
sI1232
S'descriptor'
p1227
sI1233
S'labeled'
p1228
sI1234
S'values'
p1229
sI1235
S'can'
p1230
sI1236
S'following'
p1231
sI1237
S'lubricant'
p1232
sI1238
S'detached'
p1233
sI1239
S'arrive'
p1234
sI1240
S'predeclared'
p1235
sI1241
S'cad'
p1236
sI1242
S'bridges'
p1237
sI1243
S'spy'
p1238
sI1244
S'muac'
p1239
sI1245
S'reflector'
p1240
sI1246
S'figure'
p1241
sI1247
S'mirrors'
p1242
sI1248
S'predict'
p1243
sI1249
S'accepts'
p1244
sI1250
S'chip'
p1245
sI1251
S'magnitudes'
p1246
sI1252
S'agent'
p1247
sI1253
S'sample'
p1248
sI1254
S'spi'
p1249
sI1255
S'retransmitted'
p1250
sI1256
S'performed'
p1251
sI1257
S'allowed'
p1252
sI1258
S'distinguishable'
p1253
sI1259
S'occur'
p1254
sI1260
S'dissimilar'
p1255
sI1261
S'nas-designated'
p1256
sI1262
S'requirements'
p1257
sI1263
S's2'
p1258
sI1264
S'secured'
p1259
sI1265
S'idl'
p1260
sI1266
S'chemical'
p1261
sI1267
S'criterion'
p1262
sI1268
S's.'
p1263
sI1269
S'pure'
p1264
sI1270
S'familiar'
p1265
sI1271
S'pins'
p1266
sI1272
S'ensure'
p1267
sI1273
S'allowable'
p1268
sI1274
S'mpas'
p1269
sI1275
S'parameter'
p1270
sI1276
S'secures'
p1271
sI1277
S'dissipation'
p1272
sI1278
S'map'
p1273
sI1279
S'product'
p1274
sI1280
S'designer'
p1275
sI1281
S'crashes'
p1276
sI1282
S'5.1'
p1277
sI1283
S'strokes'
p1278
sI1284
S'false'
p1279
sI1285
S'spot'
p1280
sI1286
S'needs'
p1281
sI1287
S'residues'
p1282
sI1288
S'applications'
p1283
sI1289
S'produce'
p1284
sI1290
S'snr'
p1285
sI1291
S'designed'
p1286
sI1292
S'commit'
p1287
sI1293
S'date'
p1288
sI1294
S'such'
p1289
sI1295
S'destructive'
p1290
sI1296
S'data'
p1291
sI1297
S'0.0.0.0'
p1292
sI1298
S'times'
p1293
sI1299
S'stress'
p1294
sI1300
S'natural'
p1295
sI1301
S'liquid'
p1296
sI1302
S'joint'
p1297
sI1303
S'sr'
p1298
sI1304
S'sp'
p1299
sI1305
S'simple'
p1300
sI1306
S'yielding'
p1301
sI1307
S'ghz'
p1302
sI1308
S'q'
sI1309
S'gatt'
p1303
sI1310
S'switch'
p1304
sI1311
S'so'
p1305
sI1312
S'block'
p1306
sI1313
S'sl'
p1307
sI1314
S'definitions'
p1308
sI1315
S'tapped'
p1309
sI1316
S'se'
p1310
sI1317
S'immersion'
p1311
sI1318
S'pyroelectrical'
p1312
sI1319
S'shield'
p1313
sI1320
S'furnished'
p1314
sI1321
S'indeed'
p1315
sI1322
S'127'
p1316
sI1323
S'displayed'
p1317
sI1324
S'raised'
p1318
sI1325
S'entity'
p1319
sI1326
S'stability'
p1320
sI1327
S'ended'
p1321
sI1328
S'lst'
p1322
sI1329
S'fasteners'
p1323
sI1330
S'crack'
p1324
sI1331
S'statistical'
p1325
sI1332
S'differs'
p1326
sI1333
S'solder'
p1327
sI1334
S'cold'
p1328
sI1335
S'still'
p1329
sI1336
S'ieee'
p1330
sI1337
S'subassembly'
p1331
sI1338
S'cof'
p1332
sI1339
S'grout'
p1333
sI1340
S'jig'
p1334
sI1341
S'group'
p1335
sI1342
S'monitor'
p1336
sI1343
S'e=16'
p1337
sI1344
S'procedures'
p1338
sI1345
S'organisation'
p1339
sI1346
S'presence'
p1340
sI1347
S'vicinity'
p1341
sI1348
S'decreases'
p1342
sI1349
S'heated'
p1343
sI1350
S'platform'
p1344
sI1351
S'window'
p1345
sI1352
S'listing'
p1346
sI1353
S'msb=msb'
p1347
sI1354
S'main'
p1348
sI1355
S's1'
p1349
sI1356
S'busy'
p1350
sI1357
S'apron'
p1351
sI1358
S'non'
p1352
sI1359
S'affixing'
p1353
sI1360
S'views'
p1354
sI1361
S'matches'
p1355
sI1362
S'gbd'
p1356
sI1363
S'bound'
p1357
sI1364
S'scaling'
p1358
sI1365
S'records'
p1359
sI1366
S'transmissions'
p1360
sI1367
S'qualified'
p1361
sI1368
S'tails'
p1362
sI1369
S'half'
p1363
sI1370
S'not'
p1364
sI1371
S'resource'
p1365
sI1372
S'balances'
p1366
sI1373
S'ordinary'
p1367
sI1374
S'permissions'
p1368
sI1375
S'susceptibility'
p1369
sI1376
S'term'
p1370
sI1377
S'joinasrouter'
p1371
sI1378
S'name'
p1372
sI1379
S'i-frames'
p1373
sI1380
S'revert'
p1374
sI1381
S'establishing'
p1375
sI1382
S'peered'
p1376
sI1383
S'dids'
p1377
sI1384
S'h'
sI1385
S'nlme'
p1378
sI1386
S'uso'
p1379
sI1387
S'individually'
p1380
sI1388
S'domain'
p1381
sI1389
S'square'
p1382
sI1390
S'dictated'
p1383
sI1391
S'prompted'
p1384
sI1392
S'populated'
p1385
sI1393
S'scheme'
p1386
sI1394
S'gaussian'
p1387
sI1395
S'conventions'
p1388
sI1396
S'fires'
p1389
sI1397
S'owing'
p1390
sI1398
S'pre\xe2\x80\x90'
p1391
sI1399
S'entering'
p1392
sI1400
S'year'
p1393
sI1401
S'happen'
p1394
sI1402
S'ev'
p1395
sI1403
S'adequately'
p1396
sI1404
S'neighbourhood'
p1397
sI1405
S'intended'
p1398
sI1406
S'living'
p1399
sI1407
S'shown'
p1400
sI1408
S'container'
p1401
sI1409
S'opened'
p1402
sI1410
S'space'
p1403
sI1411
S'auto_accept_flag'
p1404
sI1412
S'furthermore'
p1405
sI1413
S'interference'
p1406
sI1414
S'increase'
p1407
sI1415
S'contained'
p1408
sI1416
S'nominal'
p1409
sI1417
S'imperative'
p1410
sI1418
S'statically'
p1411
sI1419
S'hci'
p1412
sI1420
S'sensor'
p1413
sI1421
S'correct'
p1414
sI1422
S'assurance'
p1415
sI1423
S'she'
p1416
sI1424
S'earlier'
p1417
sI1425
S'lmp'
p1418
sI1426
S'retightening'
p1419
sI1427
S'coloured'
p1420
sI1428
S'cid:147'
p1421
sI1429
S'envelop'
p1422
sI1430
S'familiarize'
p1423
sI1431
S'possibility'
p1424
sI1432
S'minimized'
p1425
sI1433
S'heterogenic'
p1426
sI1434
S'complicated'
p1427
sI1435
S'codeblock\xe2\x80\x99s'
p1428
sI1436
S'mimi'
p1429
sI1437
S'sub-clause'
p1430
sI1438
S'remainder'
p1431
sI1439
S'sub-unit'
p1432
sI1440
S'card'
p1433
sI1441
S'care'
p1434
sI1442
S'partner'
p1435
sI1443
S'training'
p1436
sI1444
S'cycles'
p1437
sI1445
S'workmanship'
p1438
sI1446
S'language'
p1439
sI1447
S'cross-load-frequency-control-area'
p1440
sI1448
S'aborts'
p1441
sI1449
S'transition'
p1442
sI1450
S'programming'
p1443
sI1451
S'tries'
p1444
sI1452
S'motion'
p1445
sI1453
S'initiate'
p1446
sI1454
S'disable'
p1447
sI1455
S'place'
p1448
sI1456
S'invitation'
p1449
sI1457
S'timelines'
p1450
sI1458
S'caches'
p1451
sI1459
S'star'
p1452
sI1460
S'altitude'
p1453
sI1461
S'substrates'
p1454
sI1462
S'first'
p1455
sI1463
S'constantly'
p1456
sI1464
S'saving'
p1457
sI1465
S'withstand'
p1458
sI1466
S'omitted'
p1459
sI1467
S'declared'
p1460
sI1468
S'one'
p1461
sI1469
S'x\xe2\x80\x90ray'
p1462
sI1470
S'partner/participant'
p1463
sI1471
S'long'
p1464
sI1472
S'directly'
p1465
sI1473
S'cdrl'
p1466
sI1474
S'carry'
p1467
sI1475
S'message'
p1468
sI1476
S'custom'
p1469
sI1477
S'open'
p1470
sI1478
S'angular'
p1471
sI1479
S'discharged'
p1472
sI1480
S'engineer'
p1473
sI1481
S'given'
p1474
sI1482
S'necessarily'
p1475
sI1483
S'checked'
p1476
sI1484
S'district'
p1477
sI1485
S'meaningful'
p1478
sI1486
S'precludes'
p1479
sI1487
S'eshre'
p1480
sI1488
S'remotely'
p1481
sI1489
S'1a'
p1482
sI1490
S'indicate'
p1483
sI1491
S'returns'
p1484
sI1492
S'2'
sI1493
S'moisture'
p1485
sI1494
S'catastrophic'
p1486
sI1495
S'iaas'
p1487
sI1496
S'bits'
p1488
sI1497
S'filter'
p1489
sI1498
S'vapours'
p1490
sI1499
S'23.501'
p1491
sI1500
S'eyes'
p1492
sI1501
S'hub'
p1493
sI1502
S'that'
p1494
sI1503
S'asymmetric'
p1495
sI1504
S'humans'
p1496
sI1505
S'continuous'
p1497
sI1506
S'vma1'
p1498
sI1507
S'accurately'
p1499
sI1508
S'broadcast'
p1500
sI1509
S'released'
p1501
sI1510
S'copv'
p1502
sI1511
S'module'
p1503
sI1512
S'filtration'
p1504
sI1513
S'specialists'
p1505
sI1514
S'non-radio'
p1506
sI1515
S'representing'
p1507
sI1516
S'than'
p1508
sI1517
S'specify'
p1509
sI1518
S'10'
p1510
sI1519
S'13'
p1511
sI1520
S'cracks'
p1512
sI1521
S'15'
p1513
sI1522
S'14'
p1514
sI1523
S'17'
p1515
sI1524
S'16'
p1516
sI1525
S'18'
p1517
sI1526
S'require'
p1518
sI1527
S'spalls'
p1519
sI1528
S'transferred'
p1520
sI1529
S'modelled'
p1521
sI1530
S'coats'
p1522
sI1531
S'future'
p1523
sI1532
S'disallowed'
p1524
sI1533
S'were'
p1525
sI1534
S'tremie'
p1526
sI1535
S'wrap-around'
p1527
sI1536
S'outcome'
p1528
sI1537
S'and'
p1529
sI1538
S'files'
p1530
sI1539
S'addressing'
p1531
sI1540
S'mated'
p1532
sI1541
S'information-rich'
p1533
sI1542
S'correction'
p1534
sI1543
S'turned'
p1535
sI1544
S'locations'
p1536
sI1545
S'sae'
p1537
sI1546
S'headquarters'
p1538
sI1547
S'medical'
p1539
sI1548
S'exchanging'
p1540
sI1549
S'sar'
p1541
sI1550
S'recover'
p1542
sI1551
S'occupied'
p1543
sI1552
S'any'
p1544
sI1553
S'screening'
p1545
sI1554
S'subsystems'
p1546
sI1555
S'form'
p1547
sI1556
S'downwards'
p1548
sI1557
S'instructed'
p1549
sI1558
S'note'
p1550
sI1559
S'equipment'
p1551
sI1560
S'potential'
p1552
sI1561
S'take'
p1553
sI1562
S'fracture'
p1554
sI1563
S"activity's"
p1555
sI1564
S'objective'
p1556
sI1565
S'performance'
p1557
sI1566
S'awaits'
p1558
sI1567
S'switching'
p1559
sI1568
S'channel'
p1560
sI1569
S'long-life'
p1561
sI1570
S'200'
p1562
sI1571
S'begin'
p1563
sI1572
S'fcs'
p1564
sI1573
S'multiple'
p1565
sI1574
S'trace'
p1566
sI1575
S'opposite'
p1567
sI1576
S'buffer'
p1568
sI1577
S'price'
p1569
sI1578
S'ductile-to-brittle'
p1570
sI1579
S'molecule'
p1571
sI1580
S'fcc'
p1572
sI1581
S'printed'
p1573
sI1582
S'rationale'
p1574
sI1583
S'converter'
p1575
sI1584
S'pair'
p1576
sI1585
S'cleared'
p1577
sI1586
S']'
sI1587
S'pages'
p1578
sI1588
S'icon'
p1579
sI1589
S'linux\xe2\x80\x90based'
p1580
sI1590
S'forever'
p1581
sI1591
S'especially'
p1582
sI1592
S'notifications'
p1583
sI1593
S'considered'
p1584
sI1594
S'average'
p1585
sI1595
S'later'
p1586
sI1596
S'hungry'
p1587
sI1597
S'affected_gamut_seq_num'
p1588
sI1598
S'slaves'
p1589
sI1599
S'nuclear'
p1590
sI1600
S'reed'
p1591
sI1601
S'typically'
p1592
sI1602
S'quantity'
p1593
sI1603
S'rating'
p1594
sI1604
S'qos'
p1595
sI1605
S'certification'
p1596
sI1606
S'definite'
p1597
sI1607
S'synchronous'
p1598
sI1608
S'right-facing'
p1599
sI1609
S'tsniff'
p1600
sI1610
S'inconsistent'
p1601
sI1611
S'encoded'
p1602
sI1612
S'threshold'
p1603
sI1613
S'corner'
p1604
sI1614
S'label'
p1605
sI1615
S'tpm\xe2\x80\x99s'
p1606
sI1616
S'injection'
p1607
sI1617
S'ground'
p1608
sI1618
S'xml'
p1609
sI1619
S'fibre'
p1610
sI1620
S'ratio'
p1611
sI1621
S'evaluations'
p1612
sI1622
S'conduction'
p1613
sI1623
S'interrogations'
p1614
sI1624
S'crimped'
p1615
sI1625
S'state'
p1616
sI1626
S'fluid'
p1617
sI1627
S'considerable'
p1618
sI1628
S'only'
p1619
sI1629
S'going'
p1620
sI1630
S'implemented'
p1621
sI1631
S'developed'
p1622
sI1632
S'concurrence'
p1623
sI1633
S'routing'
p1624
sI1634
S'overwritten'
p1625
sI1635
S'reset'
p1626
sI1636
S'correctly'
p1627
sI1637
S'routine'
p1628
sI1638
S'designated'
p1629
sI1639
S'protocoldescriptorlist'
p1630
sI1640
S'satisfied'
p1631
sI1641
S'de-mate'
p1632
sI1642
S'cannot'
p1633
sI1643
S'plinth'
p1634
sI1644
S'conjunction'
p1635
sI1645
S'ssa'
p1636
sI1646
S'justified'
p1637
sI1647
S'secondary'
p1638
sI1648
S'closure'
p1639
sI1649
S'reveal'
p1640
sI1650
S'4.3.2.2c'
p1641
sI1651
S'0x000000000000'
p1642
sI1652
S'radar'
p1643
sI1653
S'cid'
p1644
sI1654
S'cross-control-area'
p1645
sI1655
S'attitude'
p1646
sI1656
S'yield'
p1647
sI1657
S'across'
p1648
sI1658
S'naked'
p1649
sI1659
S'arrays'
p1650
sI1660
S'diagnostics'
p1651
sI1661
S'predicted'
p1652
sI1662
S'though'
p1653
sI1663
S'mapped'
p1654
sI1664
S'cid:148'
p1655
sI1665
S'atsr'
p1656
sI1666
S'where'
p1657
sI1667
S'communicated'
p1658
sI1668
S'silently'
p1659
sI1669
S'non\xe2\x80\x90'
p1660
sI1670
S'ignored'
p1661
sI1671
S'rmp'
p1662
sI1672
S'uv'
p1663
sI1673
S'burst'
p1664
sI1674
S'physically'
p1665
sI1675
S'attached'
p1666
sI1676
S'routers'
p1667
sI1677
S'turn-on'
p1668
sI1678
S'bounds'
p1669
sI1679
S'connections'
p1670
sI1680
S'rmc'
p1671
sI1681
S'com-'
p1672
sI1682
S'geocast'
p1673
sI1683
S'top-level'
p1674
sI1684
S'concern'
p1675
sI1685
S'surfaces'
p1676
sI1686
S'fails'
p1677
sI1687
S'invoked'
p1678
sI1688
S'parent'
p1679
sI1689
S'compounds'
p1680
sI1690
S'subsequent'
p1681
sI1691
S'review'
p1682
sI1692
S'diode'
p1683
sI1693
S'sites'
p1684
sI1694
S'forecast'
p1685
sI1695
S'boundaries'
p1686
sI1696
S'bandwidths'
p1687
sI1697
S'outside'
p1688
sI1698
S'indexed'
p1689
sI1699
S'invokes'
p1690
sI1700
S'between'
p1691
sI1701
S'streaming'
p1692
sI1702
S'import'
p1693
sI1703
S'geometric'
p1694
sI1704
S'packet_type'
p1695
sI1705
S'checks'
p1696
sI1706
S'additionalprotocoldescriptorlists'
p1697
sI1707
S'non\xe2\x80\x90metallic'
p1698
sI1708
S'multiplied'
p1699
sI1709
S'notice'
p1700
sI1710
S'vertical'
p1701
sI1711
S'unlocks'
p1702
sI1712
S'approvals'
p1703
sI1713
S'screen'
p1704
sI1714
S'points'
p1705
sI1715
S'pd'
p1706
sI1716
S'peering'
p1707
sI1717
S'nvidea'
p1708
sI1718
S'tooling'
p1709
sI1719
S'9001'
p1710
sI1720
S'referenced'
p1711
sI1721
S'outgassing'
p1712
sI1722
S'come'
p1713
sI1723
S'autonomous'
p1714
sI1724
S'originates'
p1715
sI1725
S'concentrated'
p1716
sI1726
S'reaction'
p1717
sI1727
S'max_latency'
p1718
sI1728
S'pass-through'
p1719
sI1729
S'installation'
p1720
sI1730
S'missions'
p1721
sI1731
S'many'
p1722
sI1732
S'region'
p1723
sI1733
S'hours'
p1724
sI1734
S'according'
p1725
sI1735
S'contract'
p1726
sI1736
S'propagation'
p1727
sI1737
S's'
sI1738
S'opcode'
p1728
sI1739
S'pasted'
p1729
sI1740
S'railway'
p1730
sI1741
S'expression'
p1731
sI1742
S'contractually'
p1732
sI1743
S'among'
p1733
sI1744
S'containment'
p1734
sI1745
S'bricks'
p1735
sI1746
S'sub-field'
p1736
sI1747
S'hybrids'
p1737
sI1748
S'period'
p1738
sI1749
S'sampling'
p1739
sI1750
S'60'
p1740
sI1751
S'maintained'
p1741
sI1752
S'anti'
p1742
sI1753
S'confirm'
p1743
sI1754
S'approval'
p1744
sI1755
S'cancel'
p1745
sI1756
S'constant'
p1746
sI1757
S'crew'
p1747
sI1758
S'considers'
p1748
sI1759
S'considering'
p1749
sI1760
S'micro'
p1750
sI1761
S'cycling'
p1751
sI1762
S'subscribed'
p1752
sI1763
S'capable'
p1753
sI1764
S'mounting'
p1754
sI1765
S'6.6.1.b'
p1755
sI1766
S'certify'
p1756
sI1767
S'informed'
p1757
sI1768
S'detected'
p1758
sI1769
S'overloads'
p1759
sI1770
S'deposited'
p1760
sI1771
S'combined'
p1761
sI1772
S'stripped'
p1762
sI1773
S'time-out'
p1763
sI1774
S'prototype'
p1764
sI1775
S'ideographs'
p1765
sI1776
S'disclosed'
p1766
sI1777
S'wants'
p1767
sI1778
S'direction'
p1768
sI1779
S'enable'
p1769
sI1780
S'bypass'
p1770
sI1781
S'relaying'
p1771
sI1782
S'3.58'
p1772
sI1783
S'flushes'
p1773
sI1784
S'formed'
p1774
sI1785
S'resistance'
p1775
sI1786
S'traversal'
p1776
sI1787
S'summarize'
p1777
sI1788
S'qsp'
p1778
sI1789
S'wake'
p1779
sI1790
S'external'
p1780
sI1791
S'lead-through'
p1781
sI1792
S'masonry'
p1782
sI1793
S'4.2.3.5a'
p1783
sI1794
S'former'
p1784
sI1795
S'those'
p1785
sI1796
S'case'
p1786
sI1797
S'reed\xe2\x80\x90solomon'
p1787
sI1798
S'4-3'
p1788
sI1799
S'disconnected'
p1789
sI1800
S'fpga'
p1790
sI1801
S'developing'
p1791
sI1802
S'these'
p1792
sI1803
S'consultant'
p1793
sI1804
S'mount'
p1794
sI1805
S'engineering'
p1795
sI1806
S'profiles'
p1796
sI1807
S'cage-type'
p1797
sI1808
S'ignition'
p1798
sI1809
S'1101'
p1799
sI1810
S'cancelled'
p1800
sI1811
S'situation'
p1801
sI1812
S'margin'
p1802
sI1813
S'aluminium'
p1803
sI1814
S'iva'
p1804
sI1815
S'sample_flat.spx'
p1805
sI1816
S'eventually'
p1806
sI1817
S'characteristics'
p1807
sI1818
S'metric'
p1808
sI1819
S'engaged'
p1809
sI1820
S'telephone'
p1810
sI1821
S'0,8'
p1811
sI1822
S'middle'
p1812
sI1823
S'sudden'
p1813
sI1824
S'ambient'
p1814
sI1825
S'return'
p1815
sI1826
S'activity'
p1816
sI1827
S'receptacle'
p1817
sI1828
S'08a'
p1818
sI1829
S'movements'
p1819
sI1830
S'bags'
p1820
sI1831
S'different'
p1821
sI1832
S'develop'
p1822
sI1833
S'granted'
p1823
sI1834
S'attribute'
p1824
sI1835
S'wiring'
p1825
sI1836
S'cost-'
p1826
sI1837
S'same'
p1827
sI1838
S'surveillance'
p1828
sI1839
S'gparted'
p1829
sI1840
S'authentication'
p1830
sI1841
S'html'
p1831
sI1842
S'distilled'
p1832
sI1843
S'mand'
p1833
sI1844
S'document'
p1834
sI1845
S'events'
p1835
sI1846
S'pan'
p1836
sI1847
S'status'
p1837
sI1848
S'srej'
p1838
sI1849
S'investigated'
p1839
sI1850
S'nest'
p1840
sI1851
S'collide'
p1841
sI1852
S'driven'
p1842
sI1853
S'annulled'
p1843
sI1854
S'running'
p1844
sI1855
S'conductors'
p1845
sI1856
S'diodes'
p1846
sI1857
S'changing'
p1847
sI1858
S'validate'
p1848
sI1859
S'totally'
p1849
sI1860
S'relies'
p1850
sI1861
S'threaded'
p1851
sI1862
S'modes'
p1852
sI1863
S'abrasion'
p1853
sI1864
S'64-bit'
p1854
sI1865
S'no'
p1855
sI1866
S'ccm'
p1856
sI1867
S'authoritative'
p1857
sI1868
S'severe'
p1858
sI1869
S'without'
p1859
sI1870
S'solve'
p1860
sI1871
S'relief'
p1861
sI1872
S'components'
p1862
sI1873
S'relied'
p1863
sI1874
S'coordinate'
p1864
sI1875
S'termination'
p1865
sI1876
S'model'
p1866
sI1877
S'dimension'
p1867
sI1878
S'charged'
p1868
sI1879
S'tobt'
p1869
sI1880
S'trust'
p1870
sI1881
S'sprayed'
p1871
sI1882
S'execute'
p1872
sI1883
S'aborted'
p1873
sI1884
S'being'
p1874
sI1885
S'telemetry'
p1875
sI1886
S'adjusted'
p1876
sI1887
S'actions'
p1877
sI1888
S'schools'
p1878
sI1889
S'inflammable'
p1879
sI1890
S'cease'
p1880
sI1891
S'leeway'
p1881
sI1892
S're-certification'
p1882
sI1893
S'retest'
p1883
sI1894
S'speed'
p1884
sI1895
S'multiples'
p1885
sI1896
S'migration'
p1886
sI1897
S'sampled'
p1887
sI1898
S'death'
p1888
sI1899
S'immerged'
p1889
sI1900
S'grounded'
p1890
sI1901
S'nas'
p1891
sI1902
S'5.5.9'
p1892
sI1903
S'aggregator'
p1893
sI1904
S'measure'
p1894
sI1905
S'except'
p1895
sI1906
S'improvement'
p1896
sI1907
S'instrument'
p1897
sI1908
S'lets'
p1898
sI1909
S'setting'
p1899
sI1910
S'4'
sI1911
S'samples'
p1900
sI1912
S'zeros'
p1901
sI1913
S'initiator'
p1902
sI1914
S'functionality'
p1903
sI1915
S'4.3.2.1d'
p1904
sI1916
S'scheduled'
p1905
sI1917
S'psi'
p1906
sI1918
S'multi-layer'
p1907
sI1919
S'around'
p1908
sI1920
S'ama'
p1909
sI1921
S'rejoin'
p1910
sI1922
S'specimen'
p1911
sI1923
S'digital'
p1912
sI1924
S'pse'
p1913
sI1925
S'early'
p1914
sI1926
S'traffic'
p1915
sI1927
S'scheduler'
p1916
sI1928
S'vacuum'
p1917
sI1929
S'reconfiguration'
p1918
sI1930
S'using'
p1919
sI1931
S'accepted'
p1920
sI1932
S'blankets'
p1921
sI1933
S'representativity'
p1922
sI1934
S'color'
p1923
sI1935
S'ruled'
p1924
sI1936
S'litres'
p1925
sI1937
S'particle'
p1926
sI1938
S'identifying'
p1927
sI1939
S'reduces'
p1928
sI1940
S'serves'
p1929
sI1941
S'server'
p1930
sI1942
S'facing'
p1931
sI1943
S'chamber'
p1932
sI1944
S'benefit'
p1933
sI1945
S'106.68'
p1934
sI1946
S'either'
p1935
sI1947
S'+35\xc2\xb0c'
p1936
sI1948
S'always'
p1937
sI1949
S'output'
p1938
sI1950
S'stationary'
p1939
sI1951
S'reduced'
p1940
sI1952
S'.063'
p1941
sI1953
S'fulfil'
p1942
sI1954
S'exposed'
p1943
sI1955
S'zigbee'
p1944
sI1956
S'paragraph'
p1945
sI1957
S'per-print'
p1946
sI1958
S'specified'
p1947
sI1959
S'duration'
p1948
sI1960
S're-mate'
p1949
sI1961
S'ascent'
p1950
sI1962
S'matching'
p1951
sI1963
S'generates'
p1952
sI1964
S'provided'
p1953
sI1965
S'poll'
p1954
sI1966
S'dimensions'
p1955
sI1967
S'courses'
p1956
sI1968
S'cavity'
p1957
sI1969
S'recorded'
p1958
sI1970
S'fluids'
p1959
sI1971
S'luxembourg'
p1960
sI1972
S'responder'
p1961
sI1973
S'corrosive'
p1962
sI1974
S'decomposition'
p1963
sI1975
S'inject'
p1964
sI1976
S'provides'
p1965
sI1977
S'provider'
p1966
sI1978
S'refer'
p1967
sI1979
S'dimensionally'
p1968
sI1980
S'assembly'
p1969
sI1981
S'scientific'
p1970
sI1982
S'power'
p1971
sI1983
S'8.0'
p1972
sI1984
S'seconds'
p1973
sI1985
S'equivalent'
p1974
sI1986
S'communicate'
p1975
sI1987
S'tdd'
p1976
sI1988
S'broken'
p1977
sI1989
S'sel'
p1978
sI1990
S'papered'
p1979
sI1991
S'accommodated'
p1980
sI1992
S'standpoint'
p1981
sI1993
S'refers'
p1982
sI1994
S'manufacturer'
p1983
sI1995
S'comparison'
p1984
sI1996
S'conducting'
p1985
sI1997
S'central'
p1986
sI1998
S'cavities'
p1987
sI1999
S'package'
p1988
sI2000
S'of'
p1989
sI2001
S'disabilities'
p1990
sI2002
S'discussed'
p1991
sI2003
S'generated'
p1992
sI2004
S'acl'
p1993
sI2005
S'stipulations'
p1994
sI2006
S'nothing'
p1995
sI2007
S'water-soluble'
p1996
sI2008
S'baffles'
p1997
sI2009
S'act'
p1998
sI2010
S'mixed'
p1999
sI2011
S'notifies'
p2000
sI2012
S'backup'
p2001
sI2013
S'or'
p2002
sI2014
S'eirene'
p2003
sI2015
S'clamp'
p2004
sI2016
S'locally'
p2005
sI2017
S'mil-b-7883'
p2006
sI2018
S'non-conformance'
p2007
sI2019
S'interfacing'
p2008
sI2020
S'beacons'
p2009
sI2021
S'communication'
p2010
sI2022
S'image'
p2011
sI2023
S'authorities'
p2012
sI2024
S'harness'
p2013
sI2025
S'responds'
p2014
sI2026
S'determine'
p2015
sI2027
S'parties'
p2016
sI2028
S'operator'
p2017
sI2029
S'accumulated'
p2018
sI2030
S'your'
p2019
sI2031
S'intervention'
p2020
sI2032
S'weight'
p2021
sI2033
S'log'
p2022
sI2034
S'area'
p2023
sI2035
S'assumed'
p2024
sI2036
S'strictly'
p2025
sI2037
S'there'
p2026
sI2038
S'disposed'
p2027
sI2039
S'deadlines'
p2028
sI2040
S'ehf'
p2029
sI2041
S'start'
p2030
sI2042
S'compliant'
p2031
sI2043
S'low'
p2032
sI2044
S'sealed'
p2033
sI2045
S'dumping'
p2034
sI2046
S'actuator'
p2035
sI2047
S're-entrant'
p2036
sI2048
S'materials'
p2037
sI2049
S'passports'
p2038
sI2050
S'9'
sI2051
S'complete'
p2039
sI2052
S'enough'
p2040
sI2053
S'reduce'
p2041
sI2054
S'tailored'
p2042
sI2055
S'burrs'
p2043
sI2056
S'indicators'
p2044
sI2057
S'wiping'
p2045
sI2058
S'correlated'
p2046
sI2059
S'impedance'
p2047
sI2060
S'technologies'
p2048
sI2061
S'with'
p2049
sI2062
S'proposal'
p2050
sI2063
S'subcontractors'
p2051
sI2064
S'of/underneath'
p2052
sI2065
S'ecss\xe2\x80\x90e\xe2\x80\x90st\xe2\x80\x9032\xe2\x80\x9001'
p2053
sI2066
S'embedded'
p2054
sI2067
S'default'
p2055
sI2068
S'desiccants'
p2056
sI2069
S'robustness'
p2057
sI2070
S'implementers'
p2058
sI2071
S'operationally'
p2059
sI2072
S'emissions'
p2060
sI2073
S'mtusig'
p2061
sI2074
S'4.6.4d'
p2062
sI2075
S'agree'
p2063
sI2076
S's-frame'
p2064
sI2077
S'detailed'
p2065
sI2078
S'gone'
p2066
sI2079
S'ac'
p2067
sI2080
S'tribological'
p2068
sI2081
S'contributors'
p2069
sI2082
S'ai'
p2070
sI2083
S'certain'
p2071
sI2084
S'ners'
p2072
sI2085
S'describe'
p2073
sI2086
S'moved'
p2074
sI2087
S'proceed'
p2075
sI2088
S'brittleness'
p2076
sI2089
S'general'
p2077
sI2090
S'alarm'
p2078
sI2091
S'as'
p2079
sI2092
S'reliability'
p2080
sI2093
S'associating'
p2081
sI2094
S'at'
p2082
sI2095
S'file'
p2083
sI2096
S'formulation'
p2084
sI2097
S'lifetime'
p2085
sI2098
S'gradients'
p2086
sI2099
S'cables'
p2087
sI2100
S'portland'
p2088
sI2101
S'film'
p2089
sI2102
S'fill'
p2090
sI2103
S'allowables'
p2091
sI2104
S'again'
p2092
sI2105
S'amendments'
p2093
sI2106
S'synchronised'
p2094
sI2107
S'antenna'
p2095
sI2108
S'4.2'
p2096
sI2109
S'nwkaddralloc'
p2097
sI2110
S'personnel'
p2098
sI2111
S'drivers'
p2099
sI2112
S'nitrogen'
p2100
sI2113
S'hybrid'
p2101
sI2114
S'fastener'
p2102
sI2115
S'u-r2p'
p2103
sI2116
S'rubber'
p2104
sI2117
S'field'
p2105
sI2118
S'valid'
p2106
sI2119
S'5'
sI2120
S'spatial'
p2107
sI2121
S'delays'
p2108
sI2122
S'you'
p2109
sI2123
S'gaining'
p2110
sI2124
S'requested'
p2111
sI2125
S'met'
p2112
sI2126
S'standardize'
p2113
sI2127
S'open-ended'
p2114
sI2128
S'separate'
p2115
sI2129
S'3.59'
p2116
sI2130
S'symbol'
p2117
sI2131
S'drift'
p2118
sI2132
S'custom-made'
p2119
sI2133
S'includes'
p2120
sI2134
S'left-justified'
p2121
sI2135
S'important'
p2122
sI2136
S'peak'
p2123
sI2137
S'coverage'
p2124
sI2138
S'failures'
p2125
sI2139
S'included'
p2126
sI2140
S'brass'
p2127
sI2141
S'readings'
p2128
sI2142
S'building'
p2129
sI2143
S'booked'
p2130
sI2144
S'condensation'
p2131
sI2145
S'remote'
p2132
sI2146
S'assets'
p2133
sI2147
S'calls'
p2134
sI2148
S'waived'
p2135
sI2149
S'subclause'
p2136
sI2150
S'adsorbed'
p2137
sI2151
S'curve'
p2138
sI2152
S'controller'
p2139
sI2153
S'cored'
p2140
sI2154
S'enrichment'
p2141
sI2155
S'directors'
p2142
sI2156
S'inhibited'
p2143
sI2157
S'mass'
p2144
sI2158
S'6.1.5a'
p2145
sI2159
S'6.1.5b'
p2146
sI2160
S'quantify'
p2147
sI2161
S'cps'
p2148
sI2162
S'oral'
p2149
sI2163
S'original'
p2150
sI2164
S'cpv'
p2151
sI2165
S'cdc_hec_report_state'
p2152
sI2166
S'represent'
p2153
sI2167
S'all'
p2154
sI2168
S'consider'
p2155
sI2169
S'chinese'
p2156
sI2170
S'microfarads'
p2157
sI2171
S'sms'
p2158
sI2172
S'lack'
p2159
sI2173
S'disassembled'
p2160
sI2174
S'aphelion'
p2161
sI2175
S'scc'
p2162
sI2176
S'ecss\xe2\x80\x90e\xe2\x80\x90st\xe2\x80\x9032'
p2163
sI2177
S'spacecraft'
p2164
sI2178
S'browsers'
p2165
sI2179
S'deadline'
p2166
sI2180
S'follow'
p2167
sI2181
S'expressions'
p2168
sI2182
S'disk'
p2169
sI2183
S'decisions'
p2170
sI2184
S'baseband'
p2171
sI2185
S'causes'
p2172
sI2186
S'extra'
p2173
sI2187
S'particles'
p2174
sI2188
S'batches'
p2175
sI2189
S'vulnerability'
p2176
sI2190
S'mpas/uk'
p2177
sI2191
S'tx'
p2178
sI2192
S're'
p2179
sI2193
S'tv'
p2180
sI2194
S'subjected'
p2181
sI2195
S'cdns'
p2182
sI2196
S'ts'
p2183
sI2197
S'good'
p2184
sI2198
S'to'
p2185
sI2199
S'tl'
p2186
sI2200
S'program'
p2187
sI2201
S'stochastic'
p2188
sI2202
S'te'
p2189
sI2203
S'passed'
p2190
sI2204
S'validation_underway'
p2191
sI2205
S'activities'
p2192
sI2206
S'restrict'
p2193
sI2207
S'global'
p2194
sI2208
S'7'
sI2209
S'confidential'
p2195
sI2210
S'plastering'
p2196
sI2211
S'far'
p2197
sI2212
S'fas'
p2198
sI2213
S'mpl'
p2199
sI2214
S'mpi'
p2200
sI2215
S'perihelion'
p2201
sI2216
S'fan'
p2202
sI2217
S'fall'
p2203
sI2218
S'ticket'
p2204
sI2219
S'difference'
p2205
sI2220
S'electrical-connector'
p2206
sI2221
S'iut'
p2207
sI2222
S'condition'
p2208
sI2223
S'retested'
p2209
sI2224
S'splitter'
p2210
sI2225
S'extrusion'
p2211
sI2226
S'cable'
p2212
sI2227
S'--'
p2213
sI2228
S'evaluation'
p2214
sI2229
S'clinched'
p2215
sI2230
S'list'
p2216
sI2231
S'joined'
p2217
sI2232
S'large'
p2218
sI2233
S'circuit'
p2219
sI2234
S'sand'
p2220
sI2235
S'manages'
p2221
sI2236
S'lisn'
p2222
sI2237
S'variances'
p2223
sI2238
S'small'
p2224
sI2239
S'joiner'
p2225
sI2240
S'economically'
p2226
sI2241
S'programme'
p2227
sI2242
S'servers'
p2228
sI2243
S'employing'
p2229
sI2244
S'neighborhood'
p2230
sI2245
S'immersions'
p2231
sI2246
S'tea'
p2232
sI2247
S'tolerance'
p2233
sI2248
S'current_gamut_seq_num'
p2234
sI2249
S'req-33'
p2235
sI2250
S'rate'
p2236
sI2251
S'design'
p2237
sI2252
S'displays'
p2238
sI2253
S'pass'
p2239
sI2254
S'further'
p2240
sI2255
S'returned'
p2241
sI2256
S'linear'
p2242
sI2257
S'residue'
p2243
sI2258
S'what'
p2244
sI2259
S'activates'
p2245
sI2260
S'sub'
p2246
sI2261
S'consumers'
p2247
sI2262
S'clock'
p2248
sI2263
S'sun'
p2249
sI2264
S'sum'
p2250
sI2265
S'superordinated'
p2251
sI2266
S'alternatives'
p2252
sI2267
S'thickness'
p2253
sI2268
S'version'
p2254
sI2269
S'd.2'
p2255
sI2270
S'interlaced'
p2256
sI2271
S'public'
p2257
sI2272
S'movement'
p2258
sI2273
S'outgoing'
p2259
sI2274
S'full'
p2260
sI2275
S'installations'
p2261
sI2276
S'tags'
p2262
sI2277
S'responded'
p2263
sI2278
S'component'
p2264
sI2279
S'behaviour'
p2265
sI2280
S'baseplate'
p2266
sI2281
S'selective'
p2267
sI2282
S'operating'
p2268
sI2283
S'compressed'
p2269
sI2284
S'excess'
p2270
sI2285
S'directions'
p2271
sI2286
S'depend'
p2272
sI2287
S'method'
p2273
sI2288
S'standard'
p2274
sI2289
S'respect'
p2275
sI2290
S'transformation'
p2276
sI2291
S'interposed'
p2277
sI2292
S'search'
p2278
sI2293
S'increments'
p2279
sI2294
S'sender'
p2280
sI2295
S'ahead'
p2281
sI2296
S'losses'
p2282
sI2297
S'subcarrier'
p2283
sI2298
S'transponder'
p2284
sI2299
S'experience'
p2285
sI2300
S'prior'
p2286
sI2301
S'amount'
p2287
sI2302
S'supplements'
p2288
sI2303
S'stiffness'
p2289
sI2304
S'pick'
p2290
sI2305
S'action'
p2291
sI2306
S'sidelobes'
p2292
sI2307
S'options'
p2293
sI2308
S'via'
p2294
sI2309
S'family'
p2295
sI2310
S'integrator'
p2296
sI2311
S'line-to-ground'
p2297
sI2312
S'tracking'
p2298
sI2313
S'screens'
p2299
sI2314
S'texts'
p2300
sI2315
S'follower'
p2301
sI2316
S'chunks'
p2302
sI2317
S'inorganic'
p2303
sI2318
S'outer'
p2304
sI2319
S'establish'
p2305
sI2320
S'estimate'
p2306
sI2321
S'select'
p2307
sI2322
S'easy-to-use'
p2308
sI2323
S'conventional'
p2309
sI2324
S'rises'
p2310
sI2325
S'eye'
p2311
sI2326
S'takes'
p2312
sI2327
S'injure'
p2313
sI2328
S'distinct'
p2314
sI2329
S'wiped'
p2315
sI2330
S'contains'
p2316
sI2331
S'finally'
p2317
sI2332
S'damaged'
p2318
sI2333
S'spectrogram'
p2319
sI2334
S'magnification'
p2320
sI2335
S'soil'
p2321
sI2336
S'taken'
p2322
sI2337
S'markets'
p2323
sI2338
S'preloaded'
p2324
sI2339
S'minor'
p2325
sI2340
S'more'
p2326
sI2341
S'knows'
p2327
sI2342
S'initiated'
p2328
sI2343
S'materiel'
p2329
sI2344
S'pre-perforated'
p2330
sI2345
S'company'
p2331
sI2346
S'marks'
p2332
sI2347
S'corrected'
p2333
sI2348
S'emission'
p2334
sI2349
S'tested'
p2335
sI2350
S'flag'
p2336
sI2351
S'moistened'
p2337
sI2352
S'controlling'
p2338
sI2353
S'discrepancy'
p2339
sI2354
S'impulse'
p2340
sI2355
S'particular'
p2341
sI2356
S'known'
p2342
sI2357
S'mounted'
p2343
sI2358
S'commanded'
p2344
sI2359
S'explosively'
p2345
sI2360
S'include'
p2346
sI2361
S'hour'
p2347
sI2362
S'recall'
p2348
sI2363
S'equation'
p2349
sI2364
S'launch'
p2350
sI2365
S'redesign'
p2351
sI2366
S'remain'
p2352
sI2367
S'arrangements'
p2353
sI2368
S'could'
p2354
sI2369
S'sent'
p2355
sI2370
S'v'
sI2371
S'specialized'
p2356
sI2372
S'history'
p2357
sI2373
S'source-to-point'
p2358
sI2374
S'impacts'
p2359
sI2375
S'stated'
p2360
sI2376
S'stacking'
p2361
sI2377
S'joints'
p2362
sI2378
S'share'
p2363
sI2379
S'scad'
p2364
sI2380
S'accept'
p2365
sI2381
S'states'
p2366
sI2382
S'collision'
p2367
sI2383
S'minimum'
p2368
sI2384
S'4a'
p2369
sI2385
S'sense'
p2370
sI2386
S'airplane'
p2371
sI2387
S'dress'
p2372
sI2388
S'species'
p2373
sI2389
S'bonded'
p2374
sI2390
S'axis'
p2375
sI2391
S'terrestrial'
p2376
sI2392
S'information'
p2377
sI2393
S'respective'
p2378
sI2394
S'5.4'
p2379
sI2395
S'drained'
p2380
sI2396
S'5.7'
p2381
sI2397
S'rather'
p2382
sI2398
S'technology'
p2383
sI2399
S'acts'
p2384
sI2400
S'plated-through'
p2385
sI2401
S'21-1'
p2386
sI2402
S'menus'
p2387
sI2403
S'constructed'
p2388
sI2404
S'sub-servient'
p2389
sI2405
S'commercial'
p2390
sI2406
S'reject'
p2391
sI2407
S'interrogator'
p2392
sI2408
S'ignore'
p2393
sI2409
S'ensemble'
p2394
sI2410
S'css'
p2395
sI2411
S'plant'
p2396
sI2412
S'fs'
p2397
sI2413
S'ft'
p2398
sI2414
S'plans'
p2399
sI2415
S'communicating'
p2400
sI2416
S'reserved'
p2401
sI2417
S'derived'
p2402
sI2418
S'treatments'
p2403
sI2419
S'acrylic'
p2404
sI2420
S'aco'
p2405
sI2421
S'replace'
p2406
sI2422
S'catalog'
p2407
sI2423
S'plane'
p2408
sI2424
S'octets'
p2409
sI2425
S'welds'
p2410
sI2426
S'electromotive'
p2411
sI2427
S'erroneously'
p2412
sI2428
S'horizontal'
p2413
sI2429
S'response'
p2414
sI2430
S'clearly'
p2415
sI2431
S'a'
sI2432
S'workstation'
p2416
sI2433
S'short'
p2417
sI2434
S'footer'
p2418
sI2435
S'laminate'
p2419
sI2436
S'documentation'
p2420
sI2437
S'assign'
p2421
sI2438
S'generic'
p2422
sI2439
S'procured'
p2423
sI2440
S'tsat'
p2424
sI2441
S'shocks'
p2425
sI2442
S'6.5.3.4a'
p2426
sI2443
S'turnover'
p2427
sI2444
S'reproduced'
p2428
sI2445
S'traceability'
p2429
sI2446
S'help'
p2430
sI2447
S"don't"
p2431
sI2448
S'unauthenticated'
p2432
sI2449
S'mission'
p2433
sI2450
S'indistinguishable'
p2434
sI2451
S'disabled'
p2435
sI2452
S'held'
p2436
sI2453
S'thermal'
p2437
sI2454
S'through'
p2438
sI2455
S'filters'
p2439
sI2456
S'5.2.4.2.1'
p2440
sI2457
S'kinetic'
p2441
sI2458
S'5.2.4.2.3'
p2442
sI2459
S'avenue'
p2443
sI2460
S'its'
p2444
sI2461
S'environmentally'
p2445
sI2462
S'developer'
p2446
sI2463
S'fallback'
p2447
sI2464
S'20'
p2448
sI2465
S'border'
p2449
sI2466
S'actually'
p2450
sI2467
S'late'
p2451
sI2468
S'absence'
p2452
sI2469
S'consolidating'
p2453
sI2470
S'systems'
p2454
sI2471
S'non-conforming'
p2455
sI2472
S'pcb'
p2456
sI2473
S'clothed'
p2457
sI2474
S'might'
p2458
sI2475
S'6.1.4.1.2a'
p2459
sI2476
S'cec'
p2460
sI2477
S'cea'
p2461
sI2478
S'unrolled'
p2462
sI2479
S'inch'
p2463
sI2480
S'motivates'
p2464
sI2481
S'sulphate'
p2465
sI2482
S'suffice'
p2466
sI2483
S'non-compliant'
p2467
sI2484
S'association'
p2468
sI2485
S'easily'
p2469
sI2486
S'finite'
p2470
sI2487
S'designation'
p2471
sI2488
S"sender's"
p2472
sI2489
S'fully'
p2473
sI2490
S'all-'
p2474
sI2491
S'intervene'
p2475
sI2492
S'labeling'
p2476
sI2493
S'capability'
p2477
sI2494
S'did'
p2478
sI2495
S'token'
p2479
sI2496
S'stopped'
p2480
sI2497
S'ttot'
p2481
sI2498
S'radial'
p2482
sI2499
S'found'
p2483
sI2500
S'repeating'
p2484
sI2501
S'ceap'
p2485
sI2502
S'characterized'
p2486
sI2503
S'referred'
p2487
sI2504
S'subsystem'
p2488
sI2505
S'breakdown'
p2489
sI2506
S'0x0005'
p2490
sI2507
S'permeation'
p2491
sI2508
S'detect'
p2492
sI2509
S'unsupported'
p2493
sI2510
S'generation'
p2494
sI2511
S'posts'
p2495
sI2512
S'energy'
p2496
sI2513
S'hard'
p2497
sI2514
S'fixture'
p2498
sI2515
S'wires'
p2499
sI2516
S'expect'
p2500
sI2517
S'undertake'
p2501
sI2518
S'measurement'
p2502
sI2519
S'slave'
p2503
sI2520
S'operation'
p2504
sI2521
S'beyond'
p2505
sI2522
S'event'
p2506
sI2523
S'800-57'
p2507
sI2524
S'leave'
p2508
sI2525
S'funding'
p2509
sI2526
S'p'
sI2527
S'since'
p2510
sI2528
S'induces'
p2511
sI2529
S'projected'
p2512
sI2530
S'research'
p2513
sI2531
S'nwkmaxbroadcastretries'
p2514
sI2532
S'participants'
p2515
sI2533
S'safety'
p2516
sI2534
S'anti\xe2\x80\x90creep'
p2517
sI2535
S'hilo'
p2518
sI2536
S'print'
p2519
sI2537
S'induced'
p2520
sI2538
S'issue'
p2521
sI2539
S'occurs'
p2522
sI2540
S'fiber'
p2523
sI2541
S'solvent'
p2524
sI2542
S'inert'
p2525
sI2543
S'housed'
p2526
sI2544
S'confidence'
p2527
sI2545
S'houses'
p2528
sI2546
S'reason'
p2529
sI2547
S'base'
p2530
sI2548
S'conditioning'
p2531
sI2549
S'disposition'
p2532
sI2550
S'equipped'
p2533
sI2551
S'earliest'
p2534
sI2552
S'beginning'
p2535
sI2553
S'generate'
p2536
sI2554
S'definition'
p2537
sI2555
S'owners'
p2538
sI2556
S'retained'
p2539
sI2557
S'jet'
p2540
sI2558
S'caused'
p2541
sI2559
S'persons'
p2542
sI2560
S'low-alloy'
p2543
sI2561
S'persists'
p2544
sI2562
S'latching'
p2545
sI2563
S'propellant'
p2546
sI2564
S'left-facing'
p2547
sI2565
S'conducted'
p2548
sI2566
S'exponentially'
p2549
sI2567
S'w'
sI2568
S'customisations'
p2550
sI2569
S'thermo-mechanical'
p2551
sI2570
S'2.25'
p2552
sI2571
S'parked'
p2553
sI2572
S'exhibited'
p2554
sI2573
S'feed'
p2555
sI2574
S'copper'
p2556
sI2575
S'major'
p2557
sI2576
S'probability'
p2558
sI2577
S'prevent'
p2559
sI2578
S'netted'
p2560
sI2579
S'robotic'
p2561
sI2580
S'number'
p2562
sI2581
S'linking'
p2563
sI2582
S'utilized'
p2564
sI2583
S'smaller'
p2565
sI2584
S'done'
p2566
sI2585
S'notify'
p2567
sI2586
S'blank'
p2568
sI2587
S'anonymity'
p2569
sI2588
S'fluxes'
p2570
sI2589
S'passes'
p2571
sI2590
S'differ'
p2572
sI2591
S'"'
sI2592
S'temperature'
p2573
sI2593
S'liquid-locking'
p2574
sI2594
S'introduction'
p2575
sI2595
S'leading'
p2576
sI2596
S'interviews'
p2577
sI2597
S'amsc'
p2578
sI2598
S'least'
p2579
sI2599
S'24-bit'
p2580
sI2600
S'paint'
p2581
sI2601
S'station'
p2582
sI2602
S'straylight'
p2583
sI2603
S'identity'
p2584
sI2604
S'statement'
p2585
sI2605
S'non-essential'
p2586
sI2606
S'terminals'
p2587
sI2607
S'compromise'
p2588
sI2608
S'hundred'
p2589
sI2609
S'recovered'
p2590
sI2610
S'too'
p2591
sI2611
S'numbered'
p2592
sI2612
S'elaboration'
p2593
sI2613
S'option'
p2594
sI2614
S'relationship'
p2595
sI2615
S'pump'
p2596
sI2616
S'undergoing'
p2597
sI2617
S'checklist'
p2598
sI2618
S'interviewee'
p2599
sI2619
S'immediate'
p2600
sI2620
S'part'
p2601
sI2621
S'signaling'
p2602
sI2622
S'consult'
p2603
sI2623
S'weld'
p2604
sI2624
S'interviewer'
p2605
sI2625
S'undefined'
p2606
sI2626
S'polarized'
p2607
sI2627
S'determines'
p2608
sI2628
S'\xe2\x89\xa4'
p2609
sI2629
S'acknowledgement'
p2610
sI2630
S'grey'
p2611
sI2631
S'recording'
p2612
sI2632
S'determined'
p2613
sI2633
S'store'
p2614
sI2634
S'attention'
p2615
sI2635
S'stale'
p2616
sI2636
S'treated'
p2617
sI2637
S'declare'
p2618
sI2638
S'modeled'
p2619
sI2639
S'vanes'
p2620
sI2640
S'organisations'
p2621
sI2641
S'electrochemical'
p2622
sI2642
S'acknowledgment'
p2623
sI2643
S'cognizant'
p2624
sI2644
S'cleaned'
p2625
sI2645
S'black-anodized'
p2626
sI2646
S'qualifying'
p2627
sI2647
S'orders'
p2628
sI2648
S'lid'
p2629
sI2649
S'paths'
p2630
sI2650
S'acid'
p2631
sI2651
S'built'
p2632
sI2652
S'cfr'
p2633
sI2653
S'self'
p2634
sI2654
S'leakage'
p2635
sI2655
S'also'
p2636
sI2656
S'empirically'
p2637
sI2657
S'internal'
p2638
sI2658
S'reed\xe2\x80\x90'
p2639
sI2659
S'2d'
p2640
sI2660
S'aliasing'
p2641
sI2661
S'transparent'
p2642
sI2662
S'added'
p2643
sI2663
S'electric'
p2644
sI2664
S'64'
p2645
sI2665
S"user's"
p2646
sI2666
S'english'
p2647
sI2667
S'reach'
p2648
sI2668
S'gops'
p2649
sI2669
S'exempted'
p2650
sI2670
S'unused'
p2651
sI2671
S'most'
p2652
sI2672
S'hired'
p2653
sI2673
S'plan'
p2654
sI2674
S'significant'
p2655
sI2675
S'70'
p2656
sI2676
S'services'
p2657
sI2677
S'accepting'
p2658
sI2678
S'measured'
p2659
sI2679
S'approved'
p2660
sI2680
S'appear'
p2661
sI2681
S'deviations'
p2662
sI2682
S'kg'
p2663
sI2683
S'mobile'
p2664
sI2684
S'sensing'
p2665
sI2685
S'ki'
p2666
sI2686
S'cover'
p2667
sI2687
S'traditional'
p2668
sI2688
S'hints'
p2669
sI2689
S'optical'
p2670
sI2690
S'electrons'
p2671
sI2691
S'reflections'
p2672
sI2692
S'clean'
p2673
sI2693
S'weigh'
p2674
sI2694
S'wording'
p2675
sI2695
S'science'
p2676
sI2696
S'intermodulation'
p2677
sI2697
S'particularly'
p2678
sI2698
S'cdc'
p2679
sI2699
S'cdn'
p2680
sI2700
S'affix'
p2681
sI2701
S'hopper'
p2682
sI2702
S'degrades'
p2683
sI2703
S'deep'
p2684
sI2704
S'session'
p2685
sI2705
S'relation'
p2686
sI2706
S'cdr'
p2687
sI2707
S'acceptability'
p2688
sI2708
S'carefully'
p2689
sI2709
S'stores'
p2690
sI2710
S'degraded'
p2691
sI2711
S'microsoft\xe2\x80\x99s'
p2692
sI2712
S'fine'
p2693
sI2713
S'find'
p2694
sI2714
S'emulsion'
p2695
sI2715
S'completion'
p2696
sI2716
S'cell'
p2697
sI2717
S'simulating'
p2698
sI2718
S'parameters'
p2699
sI2719
S'4.2.4.3'
p2700
sI2720
S'distributed'
p2701
sI2721
S'evoked'
p2702
sI2722
S'bluetooth'
p2703
sI2723
S'failed'
p2704
sI2724
S'ecss'
p2705
sI2725
S'convoluted'
p2706
sI2726
S'factor'
p2707
sI2727
S'override'
p2708
sI2728
S'8'
sI2729
S'circle'
p2709
sI2730
S'proximity'
p2710
sI2731
S'his'
p2711
sI2732
S'dominant'
p2712
sI2733
S'cots'
p2713
sI2734
S'notation'
p2714
sI2735
S'meanwhile'
p2715
sI2736
S'dependent'
p2716
sI2737
S'beams'
p2717
sI2738
S'modules'
p2718
sI2739
S'trees'
p2719
sI2740
S'necessitate'
p2720
sI2741
S'observatory'
p2721
sI2742
S'rest'
p2722
sI2743
S'combinations'
p2723
sI2744
S'during'
p2724
sI2745
S'rework'
p2725
sI2746
S'crs'
p2726
sI2747
S'progressive'
p2727
sI2748
S'worst-case'
p2728
sI2749
S'generally'
p2729
sI2750
S'bytes'
p2730
sI2751
S'remove'
p2731
sI2752
S'coincidence'
p2732
sI2753
S'clocks'
p2733
sI2754
S'common'
p2734
sI2755
S'withdrawal'
p2735
sI2756
S'casting'
p2736
sI2757
S'dtgs'
p2737
sI2758
S'keyseqnumber'
p2738
sI2759
S'crm'
p2739
sI2760
S'seu'
p2740
sI2761
S'set'
p2741
sI2762
S'equinox'
p2742
sI2763
S'unicode'
p2743
sI2764
S'achieved'
p2744
sI2765
S'excavation'
p2745
sI2766
S'enabled'
p2746
sI2767
S'authorization'
p2747
sI2768
S'deactivation'
p2748
sI2769
S'see'
p2749
sI2770
S'individual'
p2750
sI2771
S'are'
p2751
sI2772
S'sea'
p2752
sI2773
S'tender'
p2753
sI2774
S'close'
p2754
sI2775
S'refuse'
p2755
sI2776
S'2.0'
p2756
sI2777
S'arm'
p2757
sI2778
S'2.5'
p2758
sI2779
S'enveloped'
p2759
sI2780
S'carried-out'
p2760
sI2781
S'practicable'
p2761
sI2782
S'bibliographic'
p2762
sI2783
S'expert'
p2763
sI2784
S'deactivate'
p2764
sI2785
S'currently'
p2765
sI2786
S'please'
p2766
sI2787
S'coordination'
p2767
sI2788
S'soldering-'
p2768
sI2789
S'actuation'
p2769
sI2790
S'probably'
p2770
sI2791
S'avoidance'
p2771
sI2792
S'conditions'
p2772
sI2793
S'r-sys-300'
p2773
sI2794
S'available'
p2774
sI2795
S'latin'
p2775
sI2796
S'recently'
p2776
sI2797
S'responses'
p2777
sI2798
S'pwb'
p2778
sI2799
S'complementary'
p2779
sI2800
S'targeted'
p2780
sI2801
S'sidelobe'
p2781
sI2802
S'interfaces'
p2782
sI2803
S'javascript'
p2783
sI2804
S'synchronizing'
p2784
sI2805
S'cryopreservation'
p2785
sI2806
S'aircraft'
p2786
sI2807
S'succeed'
p2787
sI2808
S'mentoring'
p2788
sI2809
S'shaped'
p2789
sI2810
S'interface'
p2790
sI2811
S'bronze'
p2791
sI2812
S'both'
p2792
sI2813
S'c'
sI2814
S'cubes'
p2793
sI2815
S'last'
p2794
sI2816
S'reverse'
p2795
sI2817
S'pdu'
p2796
sI2818
S'non-overlapping'
p2797
sI2819
S'pdr'
p2798
sI2820
S'sensitive'
p2799
sI2821
S'connection'
p2800
sI2822
S'configurable'
p2801
sI2823
S'trunking'
p2802
sI2824
S'1.60'
p2803
sI2825
S'long-term'
p2804
sI2826
S'pde'
p2805
sI2827
S'mean'
p2806
sI2828
S'whole'
p2807
sI2829
S'finds'
p2808
sI2830
S'ecal'
p2809
sI2831
S'sink'
p2810
sI2832
S'load'
p2811
sI2833
S'customer-specified'
p2812
sI2834
S'reconsidered'
p2813
sI2835
S'supply'
p2814
sI2836
S'battery'
p2815
sI2837
S'shear-section'
p2816
sI2838
S'rad'
p2817
sI2839
S'proton'
p2818
sI2840
S'hollow'
p2819
sI2841
S'cross-sectional'
p2820
sI2842
S'adjoining'
p2821
sI2843
S'configured'
p2822
sI2844
S'unsuccessful'
p2823
sI2845
S'vessel'
p2824
sI2846
S'steels'
p2825
sI2847
S'terminus'
p2826
sI2848
S'along'
p2827
sI2849
S'belt'
p2828
sI2850
S'consuming'
p2829
sI2851
S'described'
p2830
sI2852
S'raise'
p2831
sI2853
S'0x00'
p2832
sI2854
S'conveyor'
p2833
sI2855
S'create'
p2834
sI2856
S'acceptance'
p2835
sI2857
S'dcid'
p2836
sI2858
S'due'
p2837
sI2859
S'strategy'
p2838
sI2860
S'realistically'
p2839
sI2861
S'continuationstate'
p2840
sI2862
S'reduction'
p2841
sI2863
S'fuses'
p2842
sI2864
S'initiation'
p2843
sI2865
S'ensured'
p2844
sI2866
S'ireland'
p2845
sI2867
S'collected'
p2846
sI2868
S'tobts'
p2847
sI2869
S'brick'
p2848
sI2870
S'meeting'
p2849
sI2871
S'adc'
p2850
sI2872
S'firm'
p2851
sI2873
S'generating'
p2852
sI2874
S'flight'
p2853
sI2875
S'success-'
p2854
sI2876
S'fire'
p2855
sI2877
S'transferring'
p2856
sI2878
S'gas'
p2857
sI2879
S'precision'
p2858
sI2880
S'modelling'
p2859
sI2881
S'gap'
p2860
sI2882
S'accommodate'
p2861
sI2883
S'nrz'
p2862
sI2884
S'sleeves'
p2863
sI2885
S'representative'
p2864
sI2886
S'bidding'
p2865
sI2887
S'demand'
p2866
sI2888
S'prices'
p2867
sI2889
S'presented'
p2868
sI2890
S'rupture'
p2869
sI2891
S'hardness'
p2870
sI2892
S'presses'
p2871
sI2893
S'handling'
p2872
sI2894
S'look'
p2873
sI2895
S'p5'
p2874
sI2896
S'solid'
p2875
sI2897
S'straight'
p2876
sI2898
S'tip'
p2877
sI2899
S'batch'
p2878
sI2900
S'evaluated'
p2879
sI2901
S'utilize'
p2880
sI2902
S'technical'
p2881
sI2903
S'while'
p2882
sI2904
S'replaced'
p2883
sI2905
S'smart'
p2884
sI2906
S'evaluating'
p2885
sI2907
S'error'
p2886
sI2908
S'0.5\xc2\xb0'
p2887
sI2909
S'evaluates'
p2888
sI2910
S'ful'
p2889
sI2911
S'guide'
p2890
sI2912
S'loop'
p2891
sI2913
S'welding'
p2892
sI2914
S'concurrently'
p2893
sI2915
S'30'
p2894
sI2916
S'unit\xe2\x80\x99s'
p2895
sI2917
S'showers'
p2896
sI2918
S'backing'
p2897
sI2919
S'averaging'
p2898
sI2920
S'router'
p2899
sI2921
S'retesting'
p2900
sI2922
S'herein'
p2901
sI2923
S'encountered'
p2902
sI2924
S'itself'
p2903
sI2925
S'ready'
p2904
sI2926
S'aspects'
p2905
sI2927
S'nonmemberradius'
p2906
sI2928
S'currents'
p2907
sI2929
S'nvr'
p2908
sI2930
S'result'
p2909
sI2931
S'queue'
p2910
sI2932
S'departures/hour'
p2911
sI2933
S'authenticated'
p2912
sI2934
S'pigtail'
p2913
sI2935
S'shorted'
p2914
sI2936
S'lengths'
p2915
sI2937
S'sized'
p2916
sI2938
S'shorter'
p2917
sI2939
S'read'
p2918
sI2940
S"server's"
p2919
sI2941
S'orientated'
p2920
sI2942
S'established'
p2921
sI2943
S'uncertainty'
p2922
sI2944
S'modification'
p2923
sI2945
S'products'
p2924
sI2946
S'wcag'
p2925
sI2947
S'conflict'
p2926
sI2948
S'higher'
p2927
sI2949
S'development'
p2928
sI2950
S'anti-wicking'
p2929
sI2951
S'calculation'
p2930
sI2952
S'used'
p2931
sI2953
S'temporary'
p2932
sI2954
S'optic'
p2933
sI2955
S'le-frame'
p2934
sI2956
S'keys'
p2935
sI2957
S'msfc-std-969'
p2936
sI2958
S'cement'
p2937
sI2959
S'alert'
p2938
sI2960
S'viewing'
p2939
sI2961
S'levels'
p2940
sI2962
S'moving'
p2941
sI2963
S'user'
p2942
sI2964
S'esa_v3'
p2943
sI2965
S'aggregate'
p2944
sI2966
S'plugs'
p2945
sI2967
S'amf'
p2946
sI2968
S'fabrication'
p2947
sI2969
S'consulted'
p2948
sI2970
S'recent'
p2949
sI2971
S'lower'
p2950
sI2972
S'task'
p2951
sI2973
S'supersede'
p2952
sI2974
S'database'
p2953
sI2975
S'retention'
p2954
sI2976
S'studies'
p2955
sI2977
S'tasc'
p2956
sI2978
S'docked'
p2957
sI2979
S'analysis'
p2958
sI2980
S'jsc\xe2\x80\x93es'
p2959
sI2981
S'deliverable'
p2960
sI2982
S'concrete'
p2961
sI2983
S'u+0039'
p2962
sI2984
S'gse'
p2963
sI2985
S'consistency'
p2964
sI2986
S'clears'
p2965
sI2987
S'entry'
p2966
sI2988
S'zero-touch'
p2967
sI2989
S'clearance'
p2968
sI2990
S'wrist'
p2969
sI2991
S'positioned'
p2970
sI2992
S'bearer'
p2971
sI2993
S'precedence'
p2972
sI2994
S'radiant-energy'
p2973
sI2995
S'settlements'
p2974
sI2996
S'reviewed'
p2975
sI2997
S'distracting'
p2976
sI2998
S'shape'
p2977
sI2999
S'inactive'
p2978
sI3000
S'fall-back'
p2979
sI3001
S'pyrotechnic'
p2980
sI3002
S'questions'
p2981
sI3003
S'amp'
p2982
sI3004
S'alternative'
p2983
sI3005
S'metallic'
p2984
sI3006
S'conservative'
p2985
sI3007
S'alignment'
p2986
sI3008
S'loading'
p2987
sI3009
S'colder'
p2988
sI3010
S'cskip'
p2989
sI3011
S'percent'
p2990
sI3012
S'guaranteed'
p2991
sI3013
S'attractive'
p2992
sI3014
S'exclusively'
p2993
sI3015
S'contractor'
p2994
sI3016
S'signals'
p2995
sI3017
S'source'
p2996
sI3018
S'hyperlinks'
p2997
sI3019
S'location'
p2998
sI3020
S'relevance'
p2999
sI3021
S'input'
p3000
sI3022
S'violations'
p3001
sI3023
S'guarantees'
p3002
sI3024
S'remaining'
p3003
sI3025
S'build'
p3004
sI3026
S'customers'
p3005
sI3027
S'304l'
p3006
sI3028
S'emergency'
p3007
sI3029
S'format'
p3008
sI3030
S'evaluate'
p3009
sI3031
S'bid'
p3010
sI3032
S'f-bit'
p3011
sI3033
S'ofcs'
p3012
sI3034
S'game'
p3013
sI3035
S'marked'
p3014
sI3036
S'insert'
p3015
sI3037
S'damage'
p3016
sI3038
S'bit'
p3017
sI3039
S'projects'
p3018
sI3040
S'formal'
p3019
sI3041
S'9.3'
p3020
sI3042
S'modifications'
p3021
sI3043
S'imposed'
p3022
sI3044
S'd'
sI3045
S'submission'
p3023
sI3046
S'u-r'
p3024
sI3047
S'follows'
p3025
sI3048
S'signal'
p3026
sI3049
S'separately'
p3027
sI3050
S'communications'
p3028
sI3051
S'continue'
p3029
sI3052
S'indication'
p3030
sI3053
S'job/workflow'
p3031
sI3054
S'translated'
p3032
sI3055
S'accelerations'
p3033
sI3056
S'essential'
p3034
sI3057
S'sitemap'
p3035
sI3058
S'mathematical'
p3036
sI3059
S'clipping'
p3037
sI3060
S'google'
p3038
sI3061
S'methods'
p3039
sI3062
S'discrete'
p3040
sI3063
S'spring'
p3041
sI3064
S'creation'
p3042
sI3065
S'some'
p3043
sI3066
S'back'
p3044
sI3067
S'pretension'
p3045
sI3068
S'3.5'
p3046
sI3069
S'3.2'
p3047
sI3070
S'3.1'
p3048
sI3071
S'oscillations'
p3049
sI3072
S'system\xe2\x80\x99s'
p3050
sI3073
S'discarded'
p3051
sI3074
S'vacates'
p3052
sI3075
S'scale'
p3053
sI3076
S'flux'
p3054
sI3077
S'triglycine'
p3055
sI3078
S'contacts'
p3056
sI3079
S'tools'
p3057
sI3080
S'decision'
p3058
sI3081
S'measurements'
p3059
sI3082
S'integration'
p3060
sI3083
S'per'
p3061
sI3084
S'1,75'
p3062
sI3085
S'fowler\xe2\x80\x90nordheim'
p3063
sI3086
S'connecting'
p3064
sI3087
S'eliminate'
p3065
sI3088
S'close\xe2\x80\x90out'
p3066
sI3089
S'fragments'
p3067
sI3090
S'straightforward'
p3068
sI3091
S'installed'
p3069
sI3092
S'minimal'
p3070
sI3093
S'purge'
p3071
sI3094
S'be'
p3072
sI3095
S'measures'
p3073
sI3096
S'run'
p3074
sI3097
S'300'
p3075
sI3098
S'jumps'
p3076
sI3099
S'processing'
p3077
sI3100
S'continuing'
p3078
sI3101
S'agreement'
p3079
sI3102
S'refused'
p3080
sI3103
S'step'
p3081
sI3104
S'served'
p3082
sI3105
S'refuses'
p3083
sI3106
S'plots'
p3084
sI3107
S'article'
p3085
sI3108
S'e\xe2\x80\x906'
p3086
sI3109
S'by'
p3087
sI3110
S'essa'
p3088
sI3111
S'pipeline'
p3089
sI3112
S'certificate'
p3090
sI3113
S'constraint'
p3091
sI3114
S'tracing'
p3092
sI3115
S'firing'
p3093
sI3116
S'on-orbit'
p3094
sI3117
S'simulation'
p3095
sI3118
S'unintentional'
p3096
sI3119
S'range'
p3097
sI3120
S'microsecond'
p3098
sI3121
S'dialog'
p3099
sI3122
S'consequently'
p3100
sI3123
S'drb\xe2\x80\x99s'
p3101
sI3124
S'alerted'
p3102
sI3125
S'credible'
p3103
sI3126
S'repair'
p3104
sI3127
S'input_bandwidth'
p3105
sI3128
S'misbehavior'
p3106
sI3129
S'unnoticed'
p3107
sI3130
S'into'
p3108
sI3131
S'within'
p3109
sI3132
S'17025'
p3110
sI3133
S'drain'
p3111
sI3134
S'phase'
p3112
sI3135
S'appropriate'
p3113
sI3136
S'master'
p3114
sI3137
S'frames'
p3115
sI3138
S'proportional'
p3116
sI3139
S'guideline'
p3117
sI3140
S'runways'
p3118
sI3141
S'risk'
p3119
sI3142
S'retransmit'
p3120
sI3143
S'statistics'
p3121
sI3144
S'computer'
p3122
sI3145
S'few'
p3123
sI3146
S'placing'
p3124
sI3147
S'question'
p3125
sI3148
S'specifically'
p3126
sI3149
S'annulment'
p3127
sI3150
S'capacitance'
p3128
sI3151
S'component-level'
p3129
sI3152
S'handbook'
p3130
sI3153
S'suit'
p3131
sI3154
S'forward'
p3132
sI3155
S':'
sI3156
S'sections'
p3133
sI3157
S'opens'
p3134
sI3158
S'cleaning'
p3135
sI3159
S'le-frames'
p3136
sI3160
S'sdp'
p3137
sI3161
S'inches'
p3138
sI3162
S"device's"
p3139
sI3163
S'adjusting'
p3140
sI3164
S'memory'
p3141
sI3165
S'polyethylene'
p3142
sI3166
S'pseudo\xe2\x80\x90randomizer'
p3143
sI3167
S'properly'
p3144
sI3168
S'link'
p3145
sI3169
S'segregation'
p3146
sI3170
S'line'
p3147
sI3171
S'role'
p3148
sI3172
S'exhaustive'
p3149
sI3173
S'codeblock'
p3150
sI3174
S'balancing'
p3151
sI3175
S'rejection'
p3152
sI3176
S'consist'
p3153
sI3177
S'hydrazine'
p3154
sI3178
S'circuits'
p3155
sI3179
S'caller'
p3156
sI3180
S'up'
p3157
sI3181
S'us'
p3158
sI3182
S'um'
p3159
sI3183
S'windows'
p3160
sI3184
S'verification'
p3161
sI3185
S'uk'
p3162
sI3186
S'fdir'
p3163
sI3187
S'continuously'
p3164
sI3188
S'tpm'
p3165
sI3189
S'ua'
p3166
sI3190
S'called'
p3167
sI3191
S'zho'
p3168
sI3192
S'partition'
p3169
sI3193
S'associated'
p3170
sI3194
S'corrective'
p3171
sI3195
S'introducing'
p3172
sI3196
S'defined'
p3173
sI3197
S'flow'
p3174
sI3198
S'flush'
p3175
sI3199
S'influence'
p3176
sI3200
S'accessibility'
p3177
sI3201
S'metals'
p3178
sI3202
S'images'
p3179
sI3203
S'single'
p3180
sI3204
S'warning'
p3181
sI3205
S'6-digit'
p3182
sI3206
S'stripper'
p3183
sI3207
S'codes'
p3184
sI3208
S'%'
sI3209
S'6.2c'
p3185
sI3210
S'objection'
p3186
sI3211
S'fixing'
p3187
sI3212
S'malicious'
p3188
sI3213
S'invalid'
p3189
sI3214
S'application'
p3190
sI3215
S'priori'
p3191
sI3216
S'electrical'
p3192
sI3217
S'implements'
p3193
sI3218
S'3.27'
p3194
sI3219
S'dimensioning'
p3195
sI3220
S'decremented'
p3196
sI3221
S'acceptable'
p3197
sI3222
S'revision'
p3198
sI3223
S'padding'
p3199
sI3224
S'flammability'
p3200
sI3225
S"aircraft's"
p3201
sI3226
S'elements'
p3202
sI3227
S'co\xe2\x80\x90passengers'
p3203
sI3228
S'users'
p3204
sI3229
S'gross'
p3205
sI3230
S'pfm'
p3206
sI3231
S'aggregates'
p3207
sI3232
S'problems'
p3208
sI3233
S'occurred'
p3209
sI3234
S'regulations'
p3210
sI3235
S'bonding'
p3211
sI3236
S'allowing'
p3212
sI3237
S'suppression'
p3213
sI3238
S'velocity'
p3214
sI3239
S'metal'
p3215
sI3240
S'structure'
p3216
sI3241
S'feasible'
p3217
sI3242
S'rejects'
p3218
sI3243
S'independently'
p3219
sI3244
S'land'
p3220
sI3245
S'e'
sI3246
S'algorithm'
p3221
sI3247
S'mating'
p3222
sI3248
S'nonconformance'
p3223
sI3249
S'required'
p3224
sI3250
S'holes'
p3225
sI3251
S'orbit'
p3226
sI3252
S'purged'
p3227
sI3253
S'depth'
p3228
sI3254
S'transient'
p3229
sI3255
S'weights'
p3230
sI3256
S'voice_settings'
p3231
sI3257
S'recognize'
p3232
sI3258
S'fresh'
p3233
sI3259
S'joining'
p3234
sI3260
S'requires'
p3235
sI3261
S'having'
p3236
sI3262
S'initiating'
p3237
sI3263
S'once'
p3238
sI3264
S'code'
p3239
sI3265
S'gs'
p3240
sI3266
S'rr'
p3241
sI3267
S'melts'
p3242
sI3268
S'issued'
p3243
sI3269
S'amplifier'
p3244
sI3270
S'results'
p3245
sI3271
S'existing'
p3246
sI3272
S'maastricht'
p3247
sI3273
S'legal'
p3248
sI3274
S'go'
p3249
sI3275
S'restarted'
p3250
sI3276
S'adjustment'
p3251
sI3277
S'ammonia'
p3252
sI3278
S'issues'
p3253
sI3279
S'gases'
p3254
sI3280
S'breached'
p3255
sI3281
S'lubricants'
p3256
sI3282
S'concerned'
p3257
sI3283
S'building\xe2\x80\x90up'
p3258
sI3284
S'send'
p3259
sI3285
S'languages'
p3260
sI3286
S'citing'
p3261
sI3287
S'esd'
p3262
sI3288
S'web-grape'
p3263
sI3289
S'stable'
p3264
sI3290
S'exit'
p3265
sI3291
S'differing'
p3266
sI3292
S'gravel'
p3267
sI3293
S'gb'
p3268
sI3294
S'resources'
p3269
sI3295
S'labels'
p3270
sI3296
S'high\xe2\x80\x90voltage'
p3271
sI3297
S'listed'
p3272
sI3298
S'schedule'
p3273
sI3299
S'inhibiting'
p3274
sI3300
S'chooses'
p3275
sI3301
S'sensitivity'
p3276
sI3302
S'mixing'
p3277
sI3303
S'valves'
p3278
sI3304
S'wipe'
p3279
sI3305
S'categories'
p3280
sI3306
S'entire'
p3281
sI3307
S'exits'
p3282
sI3308
S'waveforms'
p3283
sI3309
S'transmission'
p3284
sI3310
S'eva'
p3285
sI3311
S'button'
p3286
sI3312
S'shock'
p3287
sI3313
S'colors'
p3288
sI3314
S'fewer'
p3289
sI3315
S'32,3'
p3290
sI3316
S'threat'
p3291
sI3317
S'skipped'
p3292
sI3318
S'3x3'
p3293
sI3319
S'?'
sI3320
S'grommets'
p3294
sI3321
S'car'
p3295
sI3322
S'6.2.1a'
p3296
sI3323
S'inspection'
p3297
sI3324
S'rack'
p3298
sI3325
S'configurations'
p3299
sI3326
S'preload'
p3300
sI3327
S'36-bit'
p3301
sI3328
S'dilute'
p3302
sI3329
S'telecommand'
p3303
sI3330
S'replicates'
p3304
sI3331
S'jump'
p3305
sI3332
S'video'
p3306
sI3333
S'enclosed'
p3307
sI3334
S'realistic'
p3308
sI3335
S'download'
p3309
sI3336
S'liner'
p3310
sI3337
S'odd'
p3311
sI3338
S'click'
p3312
sI3339
S'buckling'
p3313
sI3340
S'index'
p3314
sI3341
S'turn'
p3315
sI3342
S'unavailable'
p3316
sI3343
S'unknowns'
p3317
sI3344
S'4.2.10.2c'
p3318
sI3345
S'pipes'
p3319
sI3346
S'wireframe'
p3320
sI3347
S'geo-referencing'
p3321
sI3348
S'expressed'
p3322
sI3349
S'access'
p3323
sI3350
S'waiting'
p3324
sI3351
S'500'
p3325
sI3352
S'flowing'
p3326
sI3353
S'incidents'
p3327
sI3354
S';'
sI3355
S'std-2052'
p3328
sI3356
S'interleaving'
p3329
sI3357
S'exercise'
p3330
sI3358
S'body'
p3331
sI3359
S'impact'
p3332
sI3360
S'justification'
p3333
sI3361
S'degree'
p3334
sI3362
S'exchange'
p3335
sI3363
S'respectively'
p3336
sI3364
S'transmitting'
p3337
sI3365
S'spacing'
p3338
sI3366
S'e=8'
p3339
sI3367
S'delivering'
p3340
sI3368
S'desired'
p3341
sI3369
S'explore'
p3342
sI3370
S'objects'
p3343
sI3371
S'let'
p3344
sI3372
S'expansion'
p3345
sI3373
S'separation'
p3346
sI3374
S'others'
p3347
sI3375
S'layout'
p3348
sI3376
S'b'
sI3377
S'extreme'
p3349
sI3378
S'settling'
p3350
sI3379
S'dsos'
p3351
sI3380
S'convert'
p3352
sI3381
S'38'
p3353
sI3382
S'securing'
p3354
sI3383
S'software-specific'
p3355
sI3384
S'receive'
p3356
sI3385
S'involved'
p3357
sI3386
S'larger'
p3358
sI3387
S'metre'
p3359
sI3388
S'steady\xe2\x80\x90state'
p3360
sI3389
S'contradiction'
p3361
sI3390
S'engine'
p3362
sI3391
S'resulting'
p3363
sI3392
S'sub-parameter'
p3364
sI3393
S'eui64'
p3365
sI3394
S'contaminants'
p3366
sI3395
S'implement'
p3367
sI3396
S'proof'
p3368
sI3397
S'makes'
p3369
sI3398
S'honor'
p3370
sI3399
S'non-discoverable'
p3371
sI3400
S'composed'
p3372
sI3401
S'up-to-date'
p3373
sI3402
S'formulated'
p3374
sI3403
S'addresses'
p3375
sI3404
S'airspace'
p3376
sI3405
S'claim'
p3377
sI3406
S'duct'
p3378
sI3407
S'aps'
p3379
sI3408
S'app'
p3380
sI3409
S'manage'
p3381
sI3410
S'dedicated'
p3382
sI3411
S'private'
p3383
sI3412
S'addressed'
p3384
sI3413
S'decrease'
p3385
sI3414
S'names'
p3386
sI3415
S'rinsing'
p3387
sI3416
S'apply'
p3388
sI3417
S'mcgoohan'
p3389
sI3418
S'redo'
p3390
sI3419
S'gateway'
p3391
sI3420
S'ksps'
p3392
sI3421
S'use'
p3393
sI3422
S'from'
p3394
sI3423
S'links'
p3395
sI3424
S'consumption'
p3396
sI3425
S'&'
sI3426
S'remains'
p3397
sI3427
S'chi'
p3398
sI3428
S'next'
p3399
sI3429
S'hypothetically'
p3400
sI3430
S'duplicate'
p3401
sI3431
S'vehicle'
p3402
sI3432
S'themselves'
p3403
sI3433
S'surveyed'
p3404
sI3434
S'ftp'
p3405
sI3435
S're-collecting'
p3406
sI3436
S'on'
p3407
sI3437
S'started'
p3408
sI3438
S'becomes'
p3409
sI3439
S'inclined'
p3410
sI3440
S'eumetcast'
p3411
sI3441
S'core2core'
p3412
sI3442
S'visibility'
p3413
sI3443
S'carrying'
p3414
sI3444
S'level-2'
p3415
sI3445
S'antennas'
p3416
sI3446
S'i=5'
p3417
sI3447
S'procuring'
p3418
sI3448
S'detects'
p3419
sI3449
S'firewall'
p3420
sI3450
S'boards'
p3421
sI3451
S'customer'
p3422
sI3452
S'account'
p3423
sI3453
S'defines'
p3424
sI3454
S'locks'
p3425
sI3455
S'this'
p3426
sI3456
S'challenge'
p3427
sI3457
S'testability'
p3428
sI3458
S'pour'
p3429
sI3459
S'donut'
p3430
sI3460
S'prompts'
p3431
sI3461
S'anywhere'
p3432
sI3462
S'obvious'
p3433
sI3463
S'thin'
p3434
sI3464
S'0x4000'
p3435
sI3465
S'meet'
p3436
sI3466
S'closing'
p3437
sI3467
S'drops'
p3438
sI3468
S'avoided'
p3439
sI3469
S'control'
p3440
sI3470
S'weaker'
p3441
sI3471
S'proprietary'
p3442
sI3472
S'e.g.'
p3443
sI3473
S'plate'
p3444
sI3474
S'process'
p3445
sI3475
S'thermally'
p3446
sI3476
S'monitoring'
p3447
sI3477
S'purposes'
p3448
sI3478
S'pieces'
p3449
sI3479
S'high'
p3450
sI3480
S'effectively'
p3451
sI3481
S'assumptions'
p3452
sI3482
S'try'
p3453
sI3483
S'tac'
p3454
sI3484
S'sought'
p3455
sI3485
S'tan'
p3456
sI3486
S'msvf'
p3457
sI3487
S'\xe2\x80\x93x'
p3458
sI3488
S'dissectors'
p3459
sI3489
S'holds'
p3460
sI3490
S'arrangement'
p3461
sI3491
S'delay'
p3462
sI3492
S'located'
p3463
sI3493
S'gcs'
p3464
sI3494
S'carrier'
p3465
sI3495
S'instead'
p3466
sI3496
S'furnace'
p3467
sI3497
S'establishment'
p3468
sI3498
S'dd'
p3469
sI3499
S'modulations'
p3470
sI3500
S'greatly'
p3471
sI3501
S'profile'
p3472
sI3502
S'spacehab'
p3473
sI3503
S'blocks'
p3474
sI3504
S'neighbor'
p3475
sI3505
S'attend'
p3476
sI3506
S'specifications'
p3477
sI3507
S'db'
p3478
sI3508
S'collection'
p3479
sI3509
S'3'
sI3510
S'concentrations'
p3480
sI3511
S'redundancy'
p3481
sI3512
S'fatigue'
p3482
sI3513
S'discard'
p3483
sI3514
S'tier'
p3484
sI3515
S'ties'
p3485
sI3516
S'message-based'
p3486
sI3517
S'da'
p3487
sI3518
S'ecss\xe2\x80\x90e\xe2\x80\x90st\xe2\x80\x9050\xe2\x80\x9001'
p3488
sI3519
S'paas'
p3489
sI3520
S'primers'
p3490
sI3521
S'unit-level'
p3491
sI3522
S'dafni'
p3492
sI3523
S'lines'
p3493
sI3524
S'robot'
p3494
sI3525
S'redundant'
p3495
sI3526
S'element'
p3496
sI3527
S'synchronization'
p3497
sI3528
S'allow'
p3498
sI3529
S'mirrorlink'
p3499
sI3530
S'alloy'
p3500
sI3531
S'sub-items'
p3501
sI3532
S'subsequently'
p3502
sI3533
S'observation'
p3503
sI3534
S'preparing'
p3504
sI3535
S'saturated'
p3505
sI3536
S'comms'
p3506
sI3537
S'produces'
p3507
sI3538
S'volts'
p3508
sI3539
S'move'
p3509
sI3540
S'reserves'
p3510
sI3541
S'meter'
p3511
sI3542
S'interpreted'
p3512
sI3543
S'produced'
p3513
sI3544
S'inter-system'
p3514
sI3545
S'alliance'
p3515
sI3546
S'including'
p3516
sI3547
S'activity\xe2\x80\x99s'
p3517
sI3548
S'horns'
p3518
sI3549
S'mentioned'
p3519
sI3550
S'groups'
p3520
sI3551
S'defects'
p3521
sI3552
S'write'
p3522
sI3553
S'negotiated'
p3523
sI3554
S'le'
p3524
sI3555
S'longitudinal'
p3525
sI3556
S'element/modules'
p3526
sI3557
S'chosen'
p3527
sI3558
S'masses'
p3528
sI3559
S'flemish'
p3529
sI3560
S'varies'
p3530
sI3561
S'accredited'
p3531
sI3562
S'load-stress'
p3532
sI3563
S'permanent'
p3533
sI3564
S'choose'
p3534
sI3565
S'insulator'
p3535
sI3566
S'instruments'
p3536
sI3567
S'2015'
p3537
sI3568
S'eut'
p3538
sI3569
S'receptacles'
p3539
sI3570
S'conformance'
p3540
sI3571
S'<'
sI3572
S'pending'
p3541
sI3573
S'accelerated'
p3542
sI3574
S'designs'
p3543
sI3575
S'junction'
p3544
sI3576
S'greater'
p3545
sI3577
S'criticality'
p3546
sI3578
S'outlined'
p3547
sI3579
S'material'
p3548
sI3580
S'post\xe2\x80\x90transformation'
p3549
sI3581
S'topsoil'
p3550
sI3582
S'5.2.2'
p3551
sI3583
S'electro'
p3552
sI3584
S'dap'
p3553
sI3585
S'28vdc'
p3554
sI3586
S'volt-'
p3555
sI3587
S'documented'
p3556
sI3588
S'day'
p3557
sI3589
S'connection_handle'
p3558
sI3590
S'articles'
p3559
sI3591
S'transmitter'
p3560
sI3592
S'sleeve'
p3561
sI3593
S'edit'
p3562
sI3594
S'warned'
p3563
sI3595
S'identified'
p3564
sI3596
S'registrations'
p3565
sI3597
S'merge'
p3566
sI3598
S'slipping'
p3567
sI3599
S'magnitude'
p3568
sI3600
S'transmitted'
p3569
sI3601
S'mode'
p3570
sI3602
S'solders'
p3571
sI3603
S'tubing'
p3572
sI3604
S'identifies'
p3573
sI3605
S'identifier'
p3574
sI3606
S'glasses'
p3575
sI3607
S'subset'
p3576
sI3608
S'inputs'
p3577
sI3609
S'doing'
p3578
sI3610
S'chunk'
p3579
sI3611
S'strip'
p3580
sI3612
S'programmed'
p3581
sI3613
S'related'
p3582
sI3614
S'inverted'
p3583
sI3615
S'constitute'
p3584
sI3616
S'frequency'
p3585
sI3617
S'static'
p3586
sI3618
S'encodings'
p3587
sI3619
S'relates'
p3588
sI3620
S'margins'
p3589
sI3621
S'special'
p3590
sI3622
S'out'
p3591
sI3623
S'category'
p3592
sI3624
S'sunlight'
p3593
sI3625
S'vcd'
p3594
sI3626
S'matrix'
p3595
sI3627
S"'"
sI3628
S'house'
p3596
sI3629
S'repositioning'
p3597
sI3630
S'interferogram'
p3598
sI3631
S'parentaddress'
p3599
sI3632
S'rej'
p3600
sI3633
S'may'
p3601
sI3634
S'rel'
p3602
sI3635
S'electronics'
p3603
sI3636
S'supports'
p3604
sI3637
S'integrated'
p3605
sI3638
S'red'
p3606
sI3639
S'pours'
p3607
sI3640
S'recommendations'
p3608
sI3641
S'dman'
p3609
sI3642
S'diagonal'
p3610
sI3643
S'undo'
p3611
sI3644
S'strap'
p3612
sI3645
S'ban'
p3613
sI3646
S'approaches'
p3614
sI3647
S'de-registered'
p3615
sI3648
S'ecs'
p3616
sI3649
S'hazard'
p3617
sI3650
S'ecp'
p3618
sI3651
S'conflicts'
p3619
sI3652
S'business'
p3620
sI3653
S'defining'
p3621
sI3654
S'interaction'
p3622
sI3655
S'cured'
p3623
sI3656
S'g'
sI3657
S'uncharacterised'
p3624
sI3658
S'geometry'
p3625
sI3659
S'mortar'
p3626
sI3660
S'route'
p3627
sI3661
S'diminished'
p3628
sI3662
S'timer'
p3629
sI3663
S'keep'
p3630
sI3664
S'length'
p3631
sI3665
S'demating'
p3632
sI3666
S'all\xe2\x80\x90zero'
p3633
sI3667
S'qualification'
p3634
sI3668
S'stainless'
p3635
sI3669
S'timed'
p3636
sI3670
S'retain'
p3637
sI3671
S'retail'
p3638
sI3672
S'deviates'
p3639
sI3673
S'prospective'
p3640
sI3674
S'anodizing'
p3641
sI3675
S'blown'
p3642
sI3676
S'serviceclassidlist'
p3643
sI3677
S'describes'
p3644
sI3678
S'metering'
p3645
sI3679
S'reaches'
p3646
sI3680
S'ars'
p3647
sI3681
S'hertz'
p3648
sI3682
S'owner'
p3649
sI3683
S'decides'
p3650
sI3684
S'precisely'
p3651
sI3685
S'quality'
p3652
sI3686
S'reliable'
p3653
sI3687
S'owning'
p3654
sI3688
S'aperture'
p3655
sI3689
S'initialization'
p3656
sI3690
S'management'
p3657
sI3691
S'observer'
p3658
sI3692
S'practitioners'
p3659
sI3693
S'strict'
p3660
sI3694
S'unknown'
p3661
sI3695
S'desk'
p3662
sI3696
S'sep'
p3663
sI3697
S'pots'
p3664
sI3698
S'system'
p3665
sI3699
S'adopted'
p3666
sI3700
S'compatibility'
p3667
sI3701
S'priority'
p3668
sI3702
S'their'
p3669
sI3703
S'intermediate'
p3670
sI3704
S'lacing'
p3671
sI3705
S'final'
p3672
sI3706
S'townsend'
p3673
sI3707
S'lot'
p3674
sI3708
S'ambiguous'
p3675
sI3709
S'startup'
p3676
sI3710
S'completed'
p3677
sI3711
S'exactly'
p3678
sI3712
S'stresses'
p3679
sI3713
S'nonce'
p3680
sI3714
S'depressing'
p3681
sI3715
S'environmental'
p3682
sI3716
S'chemicals'
p3683
sI3717
S'!'
sI3718
S'area-to-mass'
p3684
sI3719
S'simulate'
p3685
sI3720
S'manipulation'
p3686
sI3721
S'constituent'
p3687
sI3722
S'completes'
p3688
sI3723
S'updating'
p3689
sI3724
S'steel'
p3690
sI3725
S'detection'
p3691
sI3726
S'beo'
p3692
sI3727
S'isolation'
p3693
sI3728
S'coast'
p3694
sI3729
S'submitted'
p3695
sI3730
S'limiting'
p3696
sI3731
S'arc'
p3697
sI3732
S'amplitude'
p3698
sI3733
S'ber'
p3699
sI3734
S'24kw'
p3700
sI3735
S'hermetically'
p3701
sI3736
S'undergo'
p3702
sI3737
S'seb'
p3703
sI3738
S'collecting'
p3704
sI3739
S'cryopreserved'
p3705
sI3740
S'enforced'
p3706
sI3741
S'applicant'
p3707
sI3742
S'1.0'
p3708
sI3743
S'loopback'
p3709
sI3744
S'curves'
p3710
sI3745
S'interrupted'
p3711
sI3746
S'fail'
p3712
sI3747
S'unavailability'
p3713
sI3748
S'delineated'
p3714
sI3749
S'have'
p3715
sI3750
S'disturbing'
p3716
sI3751
S'need'
p3717
sI3752
S'exhibit'
p3718
sI3753
S'full\xe2\x80\x90scale'
p3719
sI3754
S'demonstration'
p3720
sI3755
S'linked'
p3721
sI3756
S'viewed'
p3722
sI3757
S'acceleration'
p3723
sI3758
S'instrumentation'
p3724
sI3759
S'counter'
p3725
sI3760
S'documents'
p3726
sI3761
S'angle'
p3727
sI3762
S'soak'
p3728
sI3763
S'optimum'
p3729
sI3764
S'agency'
p3730
sI3765
S'able'
p3731
sI3766
S'0x01'
p3732
sI3767
S'mechanism'
p3733
sI3768
S'cross-border'
p3734
sI3769
S'polarization'
p3735
sI3770
S'instance'
p3736
sI3771
S'relatives'
p3737
sI3772
S'issuing'
p3738
sI3773
S'coronagraph'
p3739
sI3774
S'which'
p3740
sI3775
S'funds'
p3741
sI3776
S'reactions'
p3742
sI3777
S'detector'
p3743
sI3778
S'grouted'
p3744
sI3779
S'accuracy'
p3745
sI3780
S'synchronisations'
p3746
sI3781
S'unless'
p3747
sI3782
S'centre'
p3748
sI3783
S'who'
p3749
sI3784
S'greased'
p3750
sI3785
S'dockings'
p3751
sI3786
S'combustion'
p3752
sI3787
S'connected'
p3753
sI3788
S'overlapping'
p3754
sI3789
S'device'
p3755
sI3790
S'expired'
p3756
sI3791
S'class'
p3757
sI3792
S'assemblies'
p3758
sI3793
S'delivery'
p3759
sI3794
S"publisher's"
p3760
sI3795
S'igniter'
p3761
sI3796
S'url'
p3762
sI3797
S'stranded'
p3763
sI3798
S'request'
p3764
sI3799
S'uri'
p3765
sI3800
S'pipe'
p3766
sI3801
S'lowered'
p3767
sI3802
S'uscrn'
p3768
sI3803
S'workspace'
p3769
sI3804
S'mechanical'
p3770
sI3805
S'normally'
p3771
sI3806
S'0x0c'
p3772
sI3807
S'atmosphere'
p3773
sI3808
S'selection'
p3774
sI3809
S'deviation'
p3775
sI3810
S'diluted'
p3776
sI3811
S'agreed'
p3777
sI3812
S'supported'
p3778
sI3813
S'terminate'
p3779
sI3814
S'chapters'
p3780
sI3815
S'tsrv'
p3781
sI3816
S'greenhouse'
p3782
sI3817
S'unreliable'
p3783
sI3818
S'pre-tinning'
p3784
sI3819
S'high-level'
p3785
sI3820
S'bakeout'
p3786
sI3821
S'staff'
p3787
sI3822
S'nominally'
p3788
sI3823
S'partners'
p3789
sI3824
S'affects'
p3790
sI3825
S'based'
p3791
sI3826
S'knowledge'
p3792
sI3827
S'pressures'
p3793
sI3828
S'holder'
p3794
sI3829
S'('
sI3830
S'inserted'
p3795
sI3831
S'controls'
p3796
sI3832
S'should'
p3797
sI3833
S'buttons'
p3798
sI3834
S'entities'
p3799
sI3835
S'resubmit'
p3800
sI3836
S'tape'
p3801
sI3837
S'b.7.2'
p3802
sI3838
S'molecules'
p3803
sI3839
S'inherited'
p3804
sI3840
S'attained'
p3805
sI3841
S'employed'
p3806
sI3842
S'he'
p3807
sI3843
S'local'
p3808
sI3844
S'achieve'
p3809
sI3845
S'equilibrium'
p3810
sI3846
S'meant'
p3811
sI3847
S'abused'
p3812
sI3848
S'handle'
p3813
sI3849
S'means'
p3814
sI3850
S'midnight'
p3815
sI3851
S'overall'
p3816
sI3852
S'tbt'
p3817
sI3853
S'arcing'
p3818
sI3854
S'unacceptable'
p3819
sI3855
S'120'
p3820
sI3856
S'beam'
p3821
sI3857
S'ones'
p3822
sI3858
S'consecutive'
p3823
sI3859
S'timing'
p3824
sI3860
S'tbc'
p3825
sI3861
S'years'
p3826
sI3862
S'chips'
p3827
sI3863
S'areas'
p3828
sI3864
S'symbols'
p3829
sI3865
S'processes'
p3830
sI3866
S'subclauses'
p3831
sI3867
S'drop_frame'
p3832
sI3868
S'+45\xc2\xb0c'
p3833
sI3869
S'differential'
p3834
sI3870
S'rosin-based'
p3835
sI3871
S'calling'
p3836
sI3872
S'grommet'
p3837
sI3873
S'processed'
p3838
sI3874
S'shf'
p3839
sI3875
S'contain'
p3840
sI3876
S'unfeasible'
p3841
sI3877
S'fixed'
p3842
sI3878
S'nist'
p3843
sI3879
S'view'
p3844
sI3880
S'predictive'
p3845
sI3881
S'requirement'
p3846
sI3882
S'computed'
p3847
sI3883
S'exists'
p3848
sI3884
S'r-req4.2-3'
p3849
sI3885
S'frame'
p3850
sI3886
S'multi-byte'
p3851
sI3887
S'packet'
p3852
sI3888
S'operates'
p3853
sI3889
S'intensity'
p3854
sI3890
S'legacy'
p3855
sI3891
S'enhanced'
p3856
sI3892
S'operated'
p3857
sI3893
S'audits'
p3858
sI3894
S'authenticated_payload_timeout'
p3859
sI3895
S'nlme-leave.confirm'
p3860
sI3896
S'creating'
p3861
sI3897
S'phases'
p3862
sI3898
S'wire'
p3863
sI3899
S'extend'
p3864
sI3900
S'focuses'
p3865
sI3901
S'placed'
p3866
sI3902
S'pattern'
p3867
sI3903
S'missing'
p3868
sI3904
S'bias'
p3869
sI3905
S'initially'
p3870
sI3906
S'written'
p3871
sI3907
S'identification'
p3872
sI3908
S'phased'
p3873
sI3909
S'closed'
p3874
sI3910
S'lug'
p3875
sI3911
S'understood'
p3876
sI3912
S'stories'
p3877
sI3913
S'boundary'
p3878
sI3914
S'wait_f'
p3879
sI3915
S'non-zero'
p3880
sI3916
S'ends'
p3881
sI3917
S'various'
p3882
sI3918
S'explosive'
p3883
sI3919
S'ability'
p3884
sI3920
S'horizontally'
p3885
sI3921
S"system's"
p3886
sI3922
S'pumped'
p3887
sI3923
S'deliver'
p3888
sI3924
S'efficiency'
p3889
sI3925
S'rules'
p3890
sI3926
S'p2p'
p3891
sI3927
S'key'
p3892
sI3928
S'encryption'
p3893
sI3929
S'disconnect'
p3894
sI3930
S'configuration'
p3895
sI3931
S'optional'
p3896
sI3932
S'problem'
p3897
sI3933
S'redispatch'
p3898
sI3934
S'o-req4.2-1'
p3899
sI3935
S'restrictions'
p3900
sI3936
S'commands'
p3901
sI3937
S'proof-pressure'
p3902
sI3938
S'sniff'
p3903
sI3939
S'limits'
p3904
sI3940
S'freely'
p3905
sI3941
S'taking'
p3906
sI3942
S'ramp'
p3907
sI3943
S'equal'
p3908
sI3944
S'boulders'
p3909
sI3945
S'shipment'
p3910
sI3946
S'strains'
p3911
sI3947
S'attributes'
p3912
sI3948
S'estimation'
p3913
sI3949
S'safely'
p3914
sI3950
S'trajectories'
p3915
sI3951
S'otherwise'
p3916
sI3952
S'chutes'
p3917
sI3953
S'vent'
p3918
sI3954
S're-verification'
p3919
sI3955
S'relevant'
p3920
sI3956
S'cm'
p3921
sI3957
S'wall'
p3922
sI3958
S'ca'
p3923
sI3959
S'5.1.4.2'
p3924
sI3960
S'cf'
p3925
sI3961
S'environments'
p3926
sI3962
S'cd'
p3927
sI3963
S'packaging'
p3928
sI3964
S'maximize'
p3929
sI3965
S'sequences'
p3930
sI3966
S'table'
p3931
sI3967
S'allocated'
p3932
sI3968
S'holdto'
p3933
sI3969
S'withdrawn'
p3934
sI3970
S'trays'
p3935
sI3971
S'post-fault'
p3936
sI3972
S'forms'
p3937
sI3973
S'1423'
p3938
sI3974
S'packages'
p3939
sI3975
S'i.e.'
p3940
sI3976
S'keying'
p3941
sI3977
S'leads'
p3942
sI3978
S'powered'
p3943
sI3979
S'addition'
p3944
sI3980
S'trajectory'
p3945
sI3981
S'copies'
p3946
sI3982
S'redispatching'
p3947
sI3983
S'underlying'
p3948
sI3984
S'6'
sI3985
S'slowly'
p3949
sI3986
S'agreements'
p3950
sI3987
S'crewmembers'
p3951
sI3988
S'qualify'
p3952
sI3989
S'copied'
p3953
sI3990
S'anomaly'
p3954
sI3991
S'partial'
p3955
sI3992
S'>'
sI3993
S'tissues'
p3956
sI3994
S'controlled'
p3957
sI3995
S'c.'
p3958
sI3996
S'maneuvers'
p3959
sI3997
S'sufficient'
p3960
sI3998
S'bulk'
p3961
sI3999
S'finished'
p3962
sI4000
S'mannequin'
p3963
sI4001
S'covered'
p3964
sI4002
S'assessments'
p3965
sI4003
S'an'
p3966
sI4004
S'present'
p3967
sI4005
S'wood'
p3968
sI4006
S'multi'
p3969
sI4007
S'encompassed'
p3970
sI4008
S'laser'
p3971
sI4009
S'abandoned'
p3972
sI4010
S'subsets'
p3973
sI4011
S'crowds'
p3974
sI4012
S'runway'
p3975
sI4013
S'appearance'
p3976
sI4014
S'examine'
p3977
sI4015
S'value'
p3978
sI4016
S'will'
p3979
sI4017
S'ar'
p3980
sI4018
S'engine-specific'
p3981
sI4019
S'2013'
p3982
sI4020
S'fault'
p3983
sI4021
S'regulators'
p3984
sI4022
S'digits'
p3985
sI4023
S'noticed'
p3986
sI4024
S'layer'
p3987
sI4025
S'vc'
p3988
sI4026
S'follow-up'
p3989
sI4027
S'complied'
p3990
sI4028
S'manually'
p3991
sI4029
S'resident'
p3992
sI4030
S'registered'
p3993
sI4031
S'thus'
p3994
sI4032
S'site'
p3995
sI4033
S'surface'
p3996
sI4034
S'interrogate'
p3997
sI4035
S'hardware'
p3998
sI4036
S'draining'
p3999
sI4037
S'examined'
p4000
sI4038
S'sheath'
p4001
sI4039
S'crash'
p4002
sI4040
S'inspector'
p4003
sI4041
S'descriptive'
p4004
sI4042
S'orbital'
p4005
sI4043
S')'
sI4044
S'infrared-transparent'
p4006
sI4045
S'radiation'
p4007
sI4046
S'cross'
p4008
sI4047
S'device\xe2\x80\x99s'
p4009
sI4048
S'member'
p4010
sI4049
S'parts'
p4011
sI4050
S'neutralizer'
p4012
sI4051
S'units'
p4013
sI4052
S'gets'
p4014
sI4053
S'4.6.3.2c'
p4015
sI4054
S'infer'
p4016
sI4055
S'difficult'
p4017
sI4056
S'0.1'
p4018
sI4057
S'infinity'
p4019
sI4058
S'context'
p4020
sI4059
S'absorb'
p4021
sI4060
S'lasting'
p4022
sI4061
S'iot'
p4023
sI4062
S'upon'
p4024
sI4063
S'effect'
p4025
sI4064
S'forecasts'
p4026
sI4065
S'ion'
p4027
sI4066
S'assessing'
p4028
sI4067
S'pestle'
p4029
sI4068
S'frequently'
p4030
sI4069
S'vapour'
p4031
sI4070
S'ioc'
p4032
sI4071
S'expand'
p4033
sI4072
S'audit'
p4034
sI4073
S'off'
p4035
sI4074
S'center'
p4036
sI4075
S'functionalities'
p4037
sI4076
S'bootstrapping'
p4038
sI4077
S'i'
sI4078
S'uml'
p4039
sI4079
S'variety'
p4040
sI4080
S'well'
p4041
sI4081
S'0x12'
p4042
sI4082
S'procurement'
p4043
sI4083
S'protocol\xe2\x80\x99s'
p4044
sI4084
S'1'
sI4085
S'command'
p4045
sI4086
S'experimental'
p4046
sI4087
S'likewise'
p4047
sI4088
S'sets'
p4048
sI4089
S'position'
p4049
sI4090
S'audio'
p4050
sI4091
S'arising'
p4051
sI4092
S'drawing'
p4052
sI4093
S'1.25'
p4053
sI4094
S'latest'
p4054
sI4095
S'advertises'
p4055
sI4096
S'restore'
p4056
sI4097
S'bottom'
p4057
sI4098
S'excessive'
p4058
sI4099
S'less'
p4059
sI4100
S'storage'
p4060
sI4101
S'accurate'
p4061
sI4102
S'obtain'
p4062
sI4103
S'tcp'
p4063
sI4104
S'cultivable'
p4064
sI4105
S'sources'
p4065
sI4106
S'batteries'
p4066
sI4107
S'stored'
p4067
sI4108
S'voltage'
p4068
sI4109
S'protecting'
p4069
sI4110
S'rotation'
p4070
sI4111
S'unplugged'
p4071
sI4112
S'web'
p4072
sI4113
S'now'
p4073
sI4114
S'redistributed'
p4074
sI4115
S'density'
p4075
sI4116
S'elicitation'
p4076
sI4117
S'operands'
p4077
sI4118
S'point'
p4078
sI4119
S'logged'
p4079
sI4120
S'lake'
p4080
sI4121
S'capabilities'
p4081
sI4122
S'factored'
p4082
sI4123
S'deuterated'
p4083
sI4124
S'add'
p4084
sI4125
S'onwards'
p4085
sI4126
S'stress/force'
p4086
sI4127
S'spirals'
p4087
sI4128
S'air-ground'
p4088
sI4129
S'wet'
p4089
sI4130
S'cell-level'
p4090
sI4131
S'beryllium'
p4091
sI4132
S'scid'
p4092
sI4133
S'identical'
p4093
sI4134
S'tests'
p4094
sI4135
S'increased'
p4095
sI4136
S'provisions'
p4096
sI4137
S'isolators'
p4097
sI4138
S'14.7'
p4098
sI4139
S'desiccators'
p4099
sI4140
S'increases'
p4100
sI4141
S'five'
p4101
sI4142
S'know'
p4102
sI4143
S'deployment'
p4103
sI4144
S'belgium'
p4104
sI4145
S'immediately'
p4105
sI4146
S'variants'
p4106
sI4147
S'password'
p4107
sI4148
S'underlined'
p4108
sI4149
S'igm'
p4109
sI4150
S'loss'
p4110
sI4151
S'6012'
p4111
sI4152
S'necessary'
p4112
sI4153
S'helpful'
p4113
sI4154
S'success'
p4114
sI4155
S'sizes'
p4115
sI4156
S'loses'
p4116
sI4157
S'controllers'
p4117
sI4158
S're-verified'
p4118
sI4159
S'mhz'
p4119
sI4160
S'epoxy'
p4120
sI4161
S'a325'
p4121
sI4162
S'0xff'
p4122
sI4163
S'become'
p4123
sI4164
S'ad-'
p4124
sI4165
S'soft'
p4125
sI4166
S'page'
p4126
sI4167
S'replacement'
p4127
sI4168
S'accessible'
p4128
sI4169
S'poor'
p4129
sI4170
S'exceed'
p4130
sI4171
S'because'
p4131
sI4172
S'shutdown'
p4132
sI4173
S'sequence'
p4133
sI4174
S'brazing'
p4134
sI4175
S'searching'
p4135
sI4176
S'authority'
p4136
sI4177
S'zeroes'
p4137
sI4178
S'microcircuit'
p4138
sI4179
S'growth'
p4139
sI4180
S'springs'
p4140
sI4181
S'proper'
p4141
sI4182
S'home'
p4142
sI4183
S'transport'
p4143
sI4184
S'glyph'
p4144
sI4185
S'happens'
p4145
sI4186
S'indefinite'
p4146
sI4187
S'tmt'
p4147
sI4188
S'lead'
p4148
sI4189
S'kpa'
p4149
sI4190
S'leak'
p4150
sI4191
S'avoid'
p4151
sI4192
S'annex'
p4152
sI4193
S'octet'
p4153
sI4194
S'inhibit'
p4154
sI4195
S'instantaneous'
p4155
sI4196
S'does'
p4156
sI4197
S'esa'
p4157
sI4198
S'assuming'
p4158
sI4199
S'hand-mixing'
p4159
sI4200
S'demonstrated'
p4160
sI4201
S'limitations'
p4161
sI4202
S'noise'
p4162
sI4203
S'coated'
p4163
sI4204
S'slight'
p4164
sI4205
S'selecting'
p4165
sI4206
S'vnominal'
p4166
sI4207
S'ensures'
p4167
sI4208
S'oiled'
p4168
sI4209
S'retransmission'
p4169
sI4210
S'pressure'
p4170
sI4211
S'host'
p4171
sI4212
S'inherently'
p4172
sI4213
S'0xffff'
p4173
sI4214
S'offset'
p4174
sI4215
S'802.11'
p4175
sI4216
S'analyses'
p4176
sI4217
S'r'
sI4218
S'panel'
p4177
sI4219
S'ndi'
p4178
sI4220
S'about'
p4179
sI4221
S'actual'
p4180
sI4222
S'carried'
p4181
sI4223
S'embryos'
p4182
sI4224
S'subpacket'
p4183
sI4225
S'longest'
p4184
sI4226
S'nde'
p4185
sI4227
S'recognized'
p4186
sI4228
S'surge'
p4187
sI4229
S'compatible'
p4188
sI4230
S'msps'
p4189
sI4231
S'insufficient'
p4190
sI4232
S'constraints'
p4191
sI4233
S'software'
p4192
sI4234
S'31,8'
p4193
sI4235
S'equally'
p4194
sI4236
S'own'
p4195
sI4237
S'dvd-audio'
p4196
sI4238
S'keeps'
p4197
sI4239
S'previously'
p4198
sI4240
S'preexisting'
p4199
sI4241
S'submits'
p4200
sI4242
S'functional'
p4201
sI4243
S'guard'
p4202
sI4244
S'termini'
p4203
sI4245
S'national'
p4204
sI4246
S'registration'
p4205
sI4247
S'retrieve'
p4206
sI4248
S'significantly'
p4207
sI4249
S'descriptions'
p4208
sI4250
S'1.15'
p4209
sI4251
S'subassemblies'
p4210
sI4252
S'additional'
p4211
sI4253
S'elastic'
p4212
sI4254
S'transfer'
p4213
sI4255
S'housing'
p4214
sI4256
S'pairing'
p4215
sI4257
S'spiral'
p4216
sI4258
S'awarded'
p4217
sI4259
S'lost'
p4218
sI4260
S'trigger'
p4219
sI4261
S'inner'
p4220
sI4262
S'exposure'
p4221
sI4263
S'vaw'
p4222
sI4264
S'space\xe2\x80\x90earth'
p4223
sI4265
S'function'
p4224
sI4266
S'maintenance'
p4225
sI4267
S'triggered'
p4226
sI4268
S'2812'
p4227
sI4269
S'bus'
p4228
sI4270
S'hazardous'
p4229
sI4271
S'but'
p4230
sI4272
S'volume'
p4231
sI4273
S'neutral'
p4232
sI4274
S'cpk'
p4233
sI4275
S'hz'
p4234
sI4276
S'automated'
p4235
sI4277
S'highest'
p4236
sI4278
S'adhesive'
p4237
sI4279
S'99,73'
p4238
sI4280
S'witness'
p4239
sI4281
S'partially'
p4240
sI4282
S'count'
p4241
sI4283
S'self-rescue'
p4242
sI4284
S'made'
p4243
sI4285
S'dme'
p4244
sI4286
S'evident'
p4245
sI4287
S'whether'
p4246
sI4288
S'wish'
p4247
sI4289
S'cells'
p4248
sI4290
S'smooth'
p4249
sI4291
S'polices'
p4250
sI4292
S'signed'
p4251
sI4293
S'record'
p4252
sI4294
S'below'
p4253
sI4295
S'converted'
p4254
sI4296
S'limit'
p4255
sI4297
S'\xe2\x80\x98'
p4256
sI4298
S'sig\xe2\x80\x99s'
p4257
sI4299
S'demonstrate'
p4258
sI4300
S'distribution'
p4259
sI4301
S'lubricated'
p4260
sI4302
S'minutes'
p4261
sI4303
S'display'
p4262
sI4304
S'bandpass'
p4263
sI4305
S'mechanics'
p4264
sI4306
S'bearing'
p4265
sI4307
S'penetrating'
p4266
sI4308
S'pim'
p4267
sI4309
S'pin'
p4268
sI4310
S'inadequate'
p4269
sI4311
S'universal'
p4270
sI4312
S'authenticity'
p4271
sI4313
S'pid'
p4272
sI4314
S'meaningless'
p4273
sI4315
S'cycled'
p4274
sI4316
S'periods'
p4275
sI4317
S'in-between'
p4276
sI4318
S's_fanauto'
p4277
sI4319
S'sneak'
p4278
sI4320
S'cadmdd'
p4279
sI4321
S'effected'
p4280
sI4322
S'functions'
p4281
sI4323
S'compared'
p4282
sI4324
S'br/edr'
p4283
sI4325
S'calibration'
p4284
sI4326
S'42'
p4285
sI4327
S'virtual'
p4286
sI4328
S'envisaged'
p4287
sI4329
S'assessors'
p4288
sI4330
S'other'
p4289
sI4331
S'details'
p4290
sI4332
S'u'
sI4333
S'hpa'
p4291
sI4334
S'clicks'
p4292
sI4335
S'conclusion'
p4293
sI4336
S'repeat'
p4294
sI4337
S'kinds'
p4295
sI4338
S'discretionary'
p4296
sI4339
S'flaked'
p4297
sI4340
S'sustains'
p4298
sI4341
S'variation'
p4299
sI4342
S'in-'
p4300
sI4343
S'flight-like'
p4301
sI4344
S'additionally'
p4302
sI4345
S'lt_addr'
p4303
sI4346
S'survey'
p4304
sI4347
S'upwards'
p4305
sI4348
S'appoint'
p4306
sI4349
S'\xe2\x80\x90'
p4307
sI4350
S'validation'
p4308
sI4351
S'\xe2\x80\x99'
p4309
sI4352
S'resolution'
p4310
sI4353
S'factors'
p4311
sI4354
S'\xe2\x80\x9d'
p4312
sI4355
S'\xe2\x80\x9c'
p4313
sI4356
S'rule'
p4314
sI4357
S'strings'
p4315
sI4358
S'portion'
p4316
sI4359
S'volumes'
p4317
sI4360
S'silica'
p4318
sI4361
S'4b'
p4319
sI4362
S'indirectly'
p4320
sI4363
S'paired'
p4321
s.