(dp1
S'secplan'
p2
I1
sS'bidding'
p3
I2886
sS'limited'
p4
I3
sS'magnetic'
p5
I4
sS'retain'
p6
I3670
sS'dynamic'
p7
I5
sS'sco'
p8
I30
sS'yellow'
p9
I7
sS'four'
p10
I8
sS'circuitry'
p11
I9
sS'discoverable'
p12
I10
sS'consists'
p13
I11
sS'saved'
p14
I13
sS'assembled'
p15
I14
sS'nwk'
p16
I15
sS'whose'
p17
I16
sS'ventilate'
p18
I17
sS'pointing'
p19
I704
sS'aggregations'
p20
I19
sS'unanswered'
p21
I20
sS'under'
p22
I22
sS'dissolution'
p23
I23
sS'updated'
p24
I24
sS'shielding'
p25
I25
sS'mtusig'
p26
I2073
sS'desirable'
p27
I27
sS'activation'
p28
I28
sS'non\xe2\x80\x90linearity'
p29
I29
sS'rejoinnetwork'
p30
I31
sS'every'
p31
I32
sS'updates'
p32
I33
sS'summarized'
p33
I34
sS'voip'
p34
I35
sS'differentiated'
p35
I36
sS'hci'
p36
I1419
sS'internally'
p37
I38
sS'wooden'
p38
I39
sS'supports'
p39
I3636
sS'omitted'
p40
I1466
sS'solution'
p41
I41
sS'mortar'
p42
I3659
sS'vmes'
p43
I42
sS'solid'
p44
I2896
sS'tensile'
p45
I44
sS'phase'
p46
I3134
sS'red'
p47
I3638
sS'succession'
p48
I45
sS'deadline'
p49
I2179
sS'nonces'
p50
I47
sS'heading'
p51
I49
sS'earth\xe2\x80\x90'
p52
I50
sS'force'
p53
I51
sS'black-anodizing'
p54
I52
sS'incremented'
p55
I53
sS'cabling'
p56
I54
sS'consistent'
p57
I55
sS'guidelines'
p58
I56
sS'shipper-supplier'
p59
I57
sS'direct'
p60
I58
sS'batch'
p61
I2899
sS'surrounding'
p62
I61
sS'second'
p63
I62
sS'rigorous'
p64
I65
sS'air'
p65
I66
sS'even'
p66
I67
sS'esomp'
p67
I68
sS'errors'
p68
I69
sS'schedulers'
p69
I70
sS'organisms'
p70
I71
sS'incompatible'
p71
I72
sS'acceptance-level'
p72
I73
sS'integrity'
p73
I74
sS'specification'
p74
I75
sS'selected'
p75
I76
sS'completion/confirmation'
p76
I77
sS'supplied'
p77
I78
sS'16384'
p78
I80
sS'above'
p79
I81
sS'designing'
p80
I82
sS'supplier'
p81
I83
sS'new'
p82
I84
sS'increasing'
p83
I86
sS'transportkeydata'
p84
I87
sS'metadata'
p85
I88
sS'specialist'
p86
I89
sS'widget'
p87
I90
sS'simultaneously'
p88
I92
sS'mem'
p89
I93
sS'envelop'
p90
I1429
sS'never'
p91
I95
sS'residual'
p92
I96
sS'here'
p93
I97
sS'atoms'
p94
I647
sS'ionization'
p95
I99
sS'refinement'
p96
I100
sS'deposition'
p97
I101
sS'protection'
p98
I102
sS'active'
p99
I104
sS'path'
p100
I105
sS'100'
p101
I106
sS'101'
p102
I107
sS'acceptor'
p103
I108
sS'dry'
p104
I109
sS'balance'
p105
I110
sS'suitably'
p106
I111
sS'auction'
p107
I112
sS'items'
p108
I113
sS'leaves'
p109
I114
sS'changed'
p110
I115
sS'approaches'
p111
I3646
sS'reports'
p112
I117
sS'guide'
p113
I2911
sS'taped'
p114
I118
sS'procedure'
p115
I120
sS'permit'
p116
I121
sS'suitable'
p117
I122
sS'changes'
p118
I123
sS'midway'
p119
I124
sS'diameter'
p120
I126
sS'secure'
p121
I127
sS'campaign'
p122
I128
sS'cdns'
p123
I2195
sS'serialize'
p124
I130
sS'highly'
p125
I131
sS'visible'
p126
I132
sS'modulated'
p127
I133
sS'non-graphical'
p128
I134
sS'achievable'
p129
I135
sS'clearance-based'
p130
I136
sS'total'
p131
I139
sS'sub-clause'
p132
I1437
sS'unit'
p133
I141
sS'cpk'
p134
I4274
sS'plot'
p135
I142
sS'would'
p136
I143
sS'browse'
p137
I145
sS'achieve'
p138
I3844
sS'bundles'
p139
I149
sS'negative'
p140
I150
sS'tenders'
p141
I151
sS'discrepancies'
p142
I153
sS'suit'
p143
I3153
sS'173.185'
p144
I154
sS'6200'
p145
I155
sS'therefore'
p146
I156
sS'centre'
p147
I3782
sS'spike'
p148
I157
sS'type'
p149
I158
sS'until'
p150
I159
sS'separated'
p151
I160
sS'derated'
p152
I161
sS'segment-level'
p153
I162
sS'standardized'
p154
I163
sS'composite'
p155
I164
sS'traceable'
p156
I165
sS"receiver's"
p157
I166
sS'curvature'
p158
I167
sS'glass'
p159
I168
sS'srej_sent'
p160
I169
sS'interaction'
p161
I3654
sS'real-time'
p162
I171
sS'cured'
p163
I3655
sS'hole'
p164
I173
sS'hold'
p165
I174
sS'95'
p166
I1078
sS'supplemental'
p167
I176
sS'circumstances'
p168
I1086
sS'kinds'
p169
I4337
sS'join'
p170
I1096
sS'permits'
p171
I180
sS'mm'
p172
I181
sS'\xc2\xb5s'
p173
I182
sS'setup'
p174
I183
sS'work'
p175
I184
sS'eclipse'
p176
I1025
sS'worn'
p177
I1129
sS'theories'
p178
I187
sS'oxide'
p179
I188
sS'b1/b2/c/d'
p180
I190
sS'temperatures'
p181
I191
sS'install'
p182
I1150
sS'\xc2\xb5m'
p183
I1152
sS'exceptions'
p184
I194
sS'rssi'
p185
I195
sS'rework'
p186
I2745
sS'revenues'
p187
I197
sS'root'
p188
I198
sS'example'
p189
I199
sS'watertight'
p190
I201
sS'zeros'
p191
I1912
sS's_fanon'
p192
I202
sS'indicated'
p193
I203
sS'give'
p194
I204
sS'bilaterally'
p195
I205
sS'validates'
p196
I206
sS'indicates'
p197
I1228
sS'maintenance'
p198
I4266
sS'caution'
p199
I209
sS'reviewing'
p200
I210
sS'want'
p201
I211
sS'magnitudes'
p202
I1251
sS'scheduling'
p203
I213
sS'validated'
p204
I214
sS'absolute'
p205
I216
sS'preferably'
p206
I217
sS'end'
p207
I218
sS'recovery'
p208
I219
sS'carriers'
p209
I220
sS'provide'
p210
I221
sS'verify'
p211
I222
sS'sharepoint'
p212
I223
sS'feature'
p213
I224
sS'recovers'
p214
I225
sS'machine'
p215
I226
sS'how'
p216
I992
sS'hot'
p217
I228
sS'adjacent'
p218
I229
sS'significance'
p219
I230
sS'place'
p220
I1455
sS'widespread'
p221
I232
sS'charging'
p222
I233
sS'all\xe2\x80\x90zero'
p223
I3666
sS'blanks'
p224
I234
sS'description'
p225
I235
sS'undergoing'
p226
I2616
sS'modulation'
p227
I237
sS'manuals'
p228
I238
sS'after'
p229
I239
sS'containing'
p230
I240
sS'customs'
p231
I241
sS'diagram'
p232
I242
sS'timed'
p233
I3669
sS'mesh'
p234
I244
sS'sy2020'
p235
I245
sS'timelines'
p236
I1457
sS'minimizes'
p237
I247
sS'mpi'
p238
I2214
sS'arch'
p239
I249
sS'parallel'
p240
I250
sS'types'
p241
I251
sS'pigtail'
p242
I2934
sS'retail'
p243
I3671
sS'attempt'
p244
I254
sS'1280'
p245
I255
sS'effective'
p246
I256
sS'sets'
p247
I4088
sS'acknowledged'
p248
I257
sS'6.4.2'
p249
I258
sS'complexity'
p250
I259
sS'maintain'
p251
I260
sS'algorithms'
p252
I261
sS'ultimate'
p253
I262
sS'enter'
p254
I263
sS'eirp'
p255
I264
sS'operate'
p256
I265
sS'order'
p257
I266
sS'operations'
p258
I267
sS'determinate'
p259
I268
sS'executed'
p260
I269
sS'office'
p261
I270
sS'wut'
p262
I271
sS'over'
p263
I273
sS'vary'
p264
I274
sS'undetected'
p265
I275
sS'beryllium'
p266
I4131
sS'6.7'
p267
I276
sS'6.6'
p268
I277
sS'6.4'
p269
I278
sS'executes'
p270
I279
sS'oven'
p271
I280
sS'stockpiles'
p272
I281
sS'fidelity'
p273
I282
sS'tololo'
p274
I283
sS'before'
p275
I284
sS'fir'
p276
I285
sS'fittings'
p277
I286
sS'uuid'
p278
I287
sS'fit'
p279
I288
sS'undervoltage'
p280
I289
sS'blown'
p281
I3675
sS'sub-field'
p282
I1746
sS'auditors'
p283
I1223
sS'writing'
p284
I293
sS'better'
p285
I294
sS'production'
p286
I295
sS'condition'
p287
I2222
sS'400'
p288
I568
sS'weeks'
p289
I298
sS'16-bit'
p290
I299
sS'overcome'
p291
I300
sS'tbd-l2-gw-069'
p292
I301
sS'versus'
p293
I302
sS'then'
p294
I303
sS'them'
p295
I304
sS'affected'
p296
I305
sS'combination'
p297
I307
sS'prevented'
p298
I308
sS'safe'
p299
I310
sS'32kw'
p300
I311
sS'diodes'
p301
I1856
sS'break'
p302
I313
sS'band'
p303
I314
sS'caterpillar'
p304
I315
sS'penetration'
p305
I316
sS'effects'
p306
I317
sS'they'
p307
I318
sS'interrupt'
p308
I319
sS'wcag'
p309
I2946
sS'structural'
p310
I321
sS'unregistered'
p311
I322
sS'netherlands'
p312
I323
sS'non-zero'
p313
I3915
sS'oxygen'
p314
I324
sS'notified'
p315
I325
sS'queues'
p316
I326
sS'classified'
p317
I327
sS'retransmission'
p318
I4209
sS'rocks'
p319
I330
sS'cmg'
p320
I331
sS'filling'
p321
I332
sS'timeout'
p322
I333
sS'each'
p323
I334
sS'acoustic'
p324
I335
sS'interfering'
p325
I336
sS'side'
p326
I337
sS'bond'
p327
I338
sS'development'
p328
I2949
sS'directly'
p329
I1472
sS'meets'
p330
I342
sS'series'
p331
I343
sS'satellite'
p332
I345
sS'joined'
p333
I2231
sS'contracting'
p334
I347
sS'used'
p335
I2952
sS'gating'
p336
I349
sS'laboratory'
p337
I350
sS'mdp'
p338
I351
sS'humidity'
p339
I352
sS'collector'
p340
I353
sS'message'
p341
I1475
sS'revisions'
p342
I355
sS'non-ductile'
p343
I888
sS'reused'
p344
I357
sS'network'
p345
I358
sS'rr'
p346
I3266
sS'gradient'
p347
I360
sS'restricted'
p348
I361
sS'washed'
p349
I933
sS'vessels'
p350
I363
sS'content'
p351
I364
sS'dso'
p352
I365
sS'rf'
p353
I366
sS'safety'
p354
I2533
sS'collocated'
p355
I368
sS'engineer'
p356
I1480
sS'forth'
p357
I370
sS'sliding'
p358
I371
sS'splashed'
p359
I372
sS'decision-making'
p360
I373
sS'non-destructive'
p361
I374
sS'barrier'
p362
I375
sS'written'
p363
I3906
sS'utilize'
p364
I2901
sS'voltages'
p365
I378
sS'free'
p366
I379
sS'ascending'
p367
I380
sS'pre-tinning'
p368
I3818
sS'carried'
p369
I4222
sS'k=223'
p370
I381
sS'element'
p371
I3526
sS'fastening'
p372
I382
sS'checked'
p373
I1483
sS'sensors'
p374
I384
sS'wanted'
p375
I385
sS'certified'
p376
I386
sS'incorporates'
p377
I389
sS'logging'
p378
I390
sS'atc'
p379
I391
sS'created'
p380
I392
sS'iss'
p381
I393
sS'starts'
p382
I394
sS'messages'
p383
I395
sS'days'
p384
I396
sS'priorities'
p385
I397
sS'21-1'
p386
I2401
sS'creates'
p387
I399
sS'att'
p388
I400
sS'disturbed'
p389
I401
sS'iso'
p390
I402
sS'incorporated'
p391
I403
sS'moving'
p392
I2962
sS'+8'
p393
I405
sS'onto'
p394
I406
sS'6.5.3.4a'
p395
I2442
sS'does'
p396
I4196
sS'already'
p397
I408
sS'features'
p398
I409
sS'grade'
p399
I410
sS'pots'
p400
I3697
sS'esa_v3'
p401
I2964
sS'coding'
p402
I412
sS'primary'
p403
I413
sS'thereof'
p404
I414
sS'channels'
p405
I416
sS"sender's"
p406
I2488
sS'instruct'
p407
I418
sS'employing'
p408
I2243
sS'another'
p409
I420
sS'insulation'
p410
I421
sS'remotely'
p411
I1488
sS'electronic'
p412
I423
sS'payload'
p413
I424
sS'centrifuge'
p414
I426
sS'survivability'
p415
I425
sS'rated'
p416
I428
sS'service'
p417
I429
sS'5.5.3.1'
p418
I564
sS'0.02'
p419
I431
sS'opportunity'
p420
I432
sS'top'
p421
I433
sS'follow-up'
p422
I4026
sS'approximately'
p423
I434
sS'fabrication'
p424
I2968
sS'needed'
p425
I436
sS'rates'
p426
I437
sS'observations'
p427
I438
sS'lost'
p428
I4259
sS'ranging'
p429
I439
sS'listen'
p430
I440
sS'labels'
p431
I3295
sS'ceiling'
p432
I442
sS'collapse'
p433
I443
sS'radiation'
p434
I4045
sS'estimates'
p435
I445
sS'tool'
p436
I446
sS'semi-quantitative'
p437
I447
sS'rejected'
p438
I448
sS'rectified'
p439
I450
sS'repeatable'
p440
I451
sS'brushed'
p441
I454
sS'iaas'
p442
I1495
sS'begins'
p443
I456
sS'distance'
p444
I457
sS'dme'
p445
I4285
sS'target'
p446
I458
sS'roles'
p447
I459
sS'bits'
p448
I1496
sS'database'
p449
I2974
sS'tree'
p450
I463
sS'photospheric'
p451
I200
sS'mmdd'
p452
I465
sS'project'
p453
I467
sS'timeouts'
p454
I468
sS'solomon'
p455
I469
sS'classes'
p456
I470
sS'flame'
p457
I471
sS'iron'
p458
I472
sS'msps'
p459
I4230
sS'design'
p460
I2251
sS'enables'
p461
I474
sS'acquisition'
p462
I475
sS'event_mask_page_2'
p463
I476
sS'lbs'
p464
I477
sS'lbr'
p465
I478
sS'sees'
p466
I479
sS'respecting'
p467
I480
sS'navigate'
p468
I481
sS'torque'
p469
I482
sS'spectrum'
p470
I483
sS'unicast'
p471
I484
sS'lbb'
p472
I485
sS'manner'
p473
I486
sS'contents'
p474
I487
sS'relatively'
p475
I488
sS'latency'
p476
I489
sS'strength'
p477
I490
sS'hub'
p478
I1501
sS'relayed'
p479
I492
sS'thoroughly'
p480
I493
sS'latter'
p481
I494
sS'-'
I495
sS'isolated'
p482
I496
sS'indexes'
p483
I497
sS'fitting'
p484
I125
sS'contact'
p485
I500
sS'absorbed'
p486
I501
sS'payloads'
p487
I502
sS'transmit'
p488
I503
sS'completed'
p489
I3710
sS'circles'
p490
I504
sS'insulated'
p491
I505
sS'exactly'
p492
I3711
sS'shall'
p493
I507
sS'object'
p494
I508
sS'exercised'
p495
I509
sS'preset'
p496
I510
sS'germany'
p497
I511
sS'plenty'
p498
I512
sS'entry'
p499
I2987
sS'retaining'
p500
I514
sS'assessed'
p501
I515
sS'within-page'
p502
I517
sS'dummy'
p503
I518
sS'mitigate'
p504
I519
sS'clearance'
p505
I2989
sS'consumers'
p506
I2261
sS'environmental'
p507
I3715
sS'calculated'
p508
I523
sS'responder'
p509
I1972
sS'm'
I525
sS'dod'
p510
I526
sS'accounted'
p511
I527
sS'i-frame'
p512
I529
sS'enterprise'
p513
I530
sS'contractor\xe2\x80\x99s'
p514
I531
sS'doesn\xe2\x80\x99t'
p515
I532
sS'consumer'
p516
I533
sS'sum'
p517
I2264
sS'incomplete'
p518
I535
sS'reserve'
p519
I536
sS'signatures'
p520
I539
sS'contacted'
p521
I540
sS'preproduction'
p522
I541
sS'meetings'
p523
I542
sS'random'
p524
I543
sS'nominated'
p525
I544
sS'infrared'
p526
I545
sS'+45\xc2\xb0c'
p527
I3868
sS'desaturations'
p528
I546
sS'attempts'
p529
I547
sS'radio'
p530
I549
sS'solutions'
p531
I550
sS'participate'
p532
I551
sS'earth'
p533
I552
sS'analogue'
p534
I553
sS'rescheduling'
p535
I554
sS'partially'
p536
I4281
sS'busy'
p537
I1356
sS'clicked'
p538
I556
sS'just'
p539
I557
sS'implementation'
p540
I558
sS'menu'
p541
I559
sS'guidance'
p542
I560
sS'completes'
p543
I3722
sS'touched'
p544
I562
sS'adequate'
p545
I563
sS'do'
p546
I565
sS'mixture'
p547
I566
sS'strip'
p548
I3611
sS'10'
p549
I1518
sS'pre-empt'
p550
I570
sS'chromosphere'
p551
I571
sS'stop'
p552
I572
sS'dc'
p553
I573
sS'preferred'
p554
I574
sS'degradation'
p555
I575
sS'unit-level'
p556
I3521
sS'cracks'
p557
I1520
sS'pre-tinned'
p558
I579
sS'crewed'
p559
I580
sS'pallets'
p560
I581
sS'supplies'
p561
I582
sS'report'
p562
I583
sS'15'
p563
I1521
sS'represented'
p564
I673
sS'blistered'
p565
I585
sS'comply'
p566
I586
sS'dq'
p567
I587
sS'cleanly'
p568
I588
sS'runs'
p569
I589
sS'on-board'
p570
I590
sS'space\xe2\x80\x90earth'
p571
I4264
sS'emc'
p572
I591
sS'braze'
p573
I592
sS'fields'
p574
I593
sS'16'
p575
I1524
sS'observation'
p576
I3533
sS'public'
p577
I2271
sS'targetaddress'
p578
I596
sS'bag'
p579
I597
sS'inactive'
p580
I2999
sS'emp'
p581
I599
sS'analytical'
p582
I601
sS'shocks'
p583
I2441
sS'steal'
p584
I603
sS'upwards'
p585
I4347
sS'respond'
p586
I604
sS'polices'
p587
I4291
sS'mandatory'
p588
I605
sS'their'
p589
I3702
sS'reference'
p590
I606
sS'sensitivity'
p591
I3301
sS'testing'
p592
I608
sS'deemed'
p593
I609
sS'observed'
p594
I610
sS'analytics'
p595
I611
sS'electrostatic'
p596
I612
sS'radius'
p597
I613
sS'result'
p598
I2930
sS'corrupt'
p599
I615
sS'spattered'
p600
I616
sS'activities'
p601
I2205
sS'hammer'
p602
I617
sS'best'
p603
I618
sS'subject'
p604
I619
sS'instance'
p605
I3770
sS'said'
p606
I620
sS'capacity'
p607
I621
sS'inappropriate'
p608
I622
sS'propulsion'
p609
I624
sS'erroneously'
p610
I2427
sS'rings'
p611
I625
sS'yet'
p612
I626
sS'mud'
p613
I627
sS'stamps'
p614
I628
sS'unable'
p615
I629
sS'proofing'
p616
I630
sS'conductive'
p617
I631
sS'drawn'
p618
I632
sS'approach'
p619
I1198
sS'discovery'
p620
I634
sS'we'
p621
I635
sS'terms'
p622
I636
sS'extend'
p623
I3899
sS'nature'
p624
I638
sS'rolled'
p625
I639
sS'component'
p626
I2278
sS'however'
p627
I641
sS'loading'
p628
I3008
sS'wear'
p629
I643
sS'extent'
p630
I644
sS'contamination'
p631
I645
sS'carbon'
p632
I646
sS'packages'
p633
I3974
sS'improve'
p634
I648
sS'received'
p635
I649
sS'protect'
p636
I650
sS'hermetically'
p637
I3735
sS'reported'
p638
I607
sS'resistant'
p639
I654
sS'country'
p640
I655
sS'adapter'
p641
I656
sS'uncertainty'
p642
I2943
sS'against'
p643
I658
sS'prefabricated'
p644
I659
sS'planned'
p645
I660
sS'receives'
p646
I661
sS'receiver'
p647
I662
sS'exceeds'
p648
I663
sS'variance'
p649
I664
sS'requests'
p650
I665
sS'expense'
p651
I666
sS'disappears'
p652
I667
sS'asked'
p653
I668
sS'compressed'
p654
I2283
sS'and'
p655
I1537
sS'essa'
p656
I3110
sS'all-'
p657
I2490
sS'tpro'
p658
I672
sS'fissures'
p659
I1179
sS'applicability'
p660
I674
sS'drilled'
p661
I675
sS'wider'
p662
I676
sS'loaded'
p663
I677
sS'250'
p664
I678
sS'organisational'
p665
I679
sS'telecommunications'
p666
I680
sS'cert_test_root'
p667
I681
sS'tolerances'
p668
I683
sS'basis'
p669
I684
sS'three'
p670
I686
sS'been'
p671
I687
sS'.'
I688
sS'formwork'
p672
I689
sS'much'
p673
I690
sS'age-drop'
p674
I691
sS'interest'
p675
I692
sS'basic'
p676
I693
sS'expected'
p677
I694
sS'entered'
p678
I695
sS'correction'
p679
I1542
sS'website'
p680
I697
sS'obtained'
p681
I698
sS'life'
p682
I699
sS're-assessed'
p683
I700
sS'concerning'
p684
I701
sS'observatory'
p685
I2741
sS"entry's"
p686
I702
sS'automatic'
p687
I98
sS'wish'
p688
I4288
sS'attacker'
p689
I705
sS'coherent'
p690
I706
sS'confinement'
p691
I707
sS'child'
p692
I708
sS'mcu'
p693
I709
sS'spin'
p694
I710
sS'diverted'
p695
I711
sS'applied'
p696
I712
sS'exception'
p697
I714
sS'launcher'
p698
I715
sS'launches'
p699
I716
sS'99,73'
p700
I4279
sS'commandreject'
p701
I717
sS'alerted'
p702
I3124
sS'n'
I826
sS'employ'
p703
I720
sS'near'
p704
I721
sS'dashboard'
p705
I722
sS'applies'
p706
I723
sS'property'
p707
I724
sS'sla'
p708
I725
sS'launched'
p709
I726
sS'extruder'
p710
I727
sS'facetable'
p711
I728
sS'vulnerability'
p712
I2189
sS'optical'
p713
I2689
sS'subcarrier'
p714
I2297
sS'is'
p715
I731
sS'ir'
p716
I732
sS'it'
p717
I733
sS'transponder'
p718
I2298
sS'ii'
p719
I735
sS'tissue'
p720
I736
sS'experts'
p721
I737
sS'exterior'
p722
I738
sS'in'
p723
I739
sS'conditioner'
p724
I212
sS'uplift'
p725
I741
sS'ducting'
p726
I742
sS'ie'
p727
I743
sS'id'
p728
I744
sS'if'
p729
I746
sS'confirmed'
p730
I747
sS'recover'
p731
I1550
sS'cools'
p732
I749
sS'perform'
p733
I750
sS'large'
p734
I2232
sS'make'
p735
I752
sS'plated'
p736
I754
sS'clearly'
p737
I2430
sS'source-to-point'
p738
I2373
sS'complex'
p739
I756
sS'split'
p740
I757
sS'spirals'
p741
I4127
sS'controllers'
p742
I4157
sS'lithium'
p743
I516
sS'breaks'
p744
I837
sS'crevices'
p745
I761
sS'european'
p746
I762
sS'wheel'
p747
I763
sS'independent'
p748
I764
sS'plating'
p749
I765
sS'4.6.3.2c'
p750
I4053
sS'kiq'
p751
I766
sS'numerical'
p752
I767
sS'rail'
p753
I768
sS'subsystems'
p754
I1554
sS'nid'
p755
I770
sS'\xef\xac\x81eld'
p756
I771
sS'waterfall'
p757
I772
sS'i-'
p758
I773
sS'characters'
p759
I775
sS'vibrated'
p760
I776
sS'5.3.3'
p761
I778
sS'cycle'
p762
I779
sS'simulates'
p763
I780
sS'prescribed'
p764
I781
sS'drb'
p765
I782
sS'kept'
p766
I783
sS'scenario'
p767
I784
sS'programs'
p768
I785
sS'a.5.7.3.1'
p769
I786
sS'prioritize'
p770
I787
sS'a.5.7.3.3'
p771
I788
sS'physical_link_handle'
p772
I789
sS'datasheets'
p773
I790
sS'cancellation'
p774
I791
sS'client'
p775
I792
sS'greatest'
p776
I793
sS'simulated'
p777
I794
sS'quantitative'
p778
I795
sS'the'
p779
I796
sS'left'
p780
I797
sS'stringent'
p781
I798
sS'protocol'
p782
I799
sS'proposed'
p783
I800
sS'sentence'
p784
I801
sS'photo'
p785
I802
sS'stimulations'
p786
I804
sS'crewmember'
p787
I805
sS'assigned'
p788
I806
sS'proposes'
p789
I807
sS'bandwidth'
p790
I808
sS'identify'
p791
I809
sS'mechanism'
p792
I3767
sS'human'
p793
I811
sS'clamped'
p794
I813
sS'functionally'
p795
I814
sS'previous'
p796
I815
sS'biome'
p797
I816
sS'enters'
p798
I577
sS'monitored'
p799
I818
sS'classification'
p800
I819
sS'vibration'
p801
I657
sS'elc'
p802
I821
sS'character'
p803
I822
sS'passive'
p804
I824
sS'requestor'
p805
I825
sS'greatly'
p806
I3500
sS'board'
p807
I827
sS'non-operational'
p808
I828
sS'placeholders'
p809
I829
sS'has'
p810
I830
sS'plasma'
p811
I831
sS'haw'
p812
I832
sS'elevation'
p813
I834
sS'which'
p814
I3774
sS'bands'
p815
I836
sS'survival'
p816
I844
sS'credit'
p817
I838
sS'disagreement'
p818
I839
sS'possible'
p819
I840
sS'caps'
p820
I841
sS'interfacing'
p821
I2019
sS'possibly'
p822
I842
sS'fusion'
p823
I843
sS'sustains'
p824
I4340
sS'imposed'
p825
I3043
sS'sefi'
p826
I846
sS'apart'
p827
I847
sS'screens'
p828
I2313
sS'performing'
p829
I849
sS'manual'
p830
I850
sS'50'
p831
I851
sS'grouted'
p832
I3778
sS'specific'
p833
I853
sS'renamed'
p834
I854
sS'steps'
p835
I855
sS'officer'
p836
I856
sS'security'
p837
I859
sS'signal'
p838
I3048
sS'webb'
p839
I864
sS'awarded'
p840
I4258
sS'right'
p841
I866
sS'old'
p842
I867
sS'sends'
p843
I868
sS'successfully'
p844
I870
sS'deflection'
p845
I871
sS'worst\xe2\x80\x90case'
p846
I872
sS'encumbrances'
p847
I873
sS'paragraphs'
p848
I874
sS'affixing'
p849
I1359
sS'vda'
p850
I879
sS'orbiter'
p851
I880
sS'fop'
p852
I881
sS'tracked'
p853
I882
sS'for'
p854
I883
sS'fos'
p855
I884
sS'electromagnetic'
p856
I272
sS'opposite'
p857
I1575
sS'buffer'
p858
I1576
sS'continue'
p859
I3051
sS'indication'
p860
I3052
sS'cerro'
p861
I892
sS'plan\xe2\x80\x99s'
p862
I893
sS'core'
p863
I895
sS'shaker'
p864
I896
sS'ductile-to-brittle'
p865
I1578
sS'repository'
p866
I1134
sS'deleted'
p867
I899
sS'pose'
p868
I900
sS'illustration'
p869
I901
sS'quaternion'
p870
I902
sS'substituted'
p871
I903
sS'bolt'
p872
I904
sS'architectural'
p873
I905
sS'peer'
p874
I1181
sS'eye'
p875
I2325
sS'post'
p876
I908
sS'manufacturing'
p877
I909
sS'super'
p878
I910
sS'permitted'
p879
I1195
sS'proceed'
p880
I2087
sS'egse'
p881
I1204
sS'commanded'
p882
I2358
sS'protoflight'
p883
I914
sS'5\xe2\x80\x903'
p884
I915
sS'months'
p885
I916
sS'accepts'
p886
I1249
sS'undocumented'
p887
I918
sS'ensure'
p888
I1272
sS'sitemap'
p889
I3057
sS'done'
p890
I2584
sS'microcircuit'
p891
I4178
sS'commit'
p892
I1292
sS'runtime'
p893
I924
sS'wiped'
p894
I2329
sS'automatically'
p895
I926
sS'considerations'
p896
I928
sS'discharging'
p897
I1070
sS'contains'
p898
I2330
sS'ppe'
p899
I931
sS'presence'
p900
I1346
sS'overloads'
p901
I1769
sS'rotations'
p902
I935
sS'bound'
p903
I1363
sS'balances'
p904
I1372
sS'down'
p905
I938
sS'sos'
p906
I939
sS'4.12'
p907
I940
sS'wrap'
p908
I941
sS'methods'
p909
I3061
sS'oiled'
p910
I4208
sS'existed'
p911
I944
sS'rely'
p912
I945
sS'retransmitted'
p913
I1255
sS'compression'
p914
I947
sS']'
I1586
sS'support'
p915
I949
sS'initial'
p916
I950
sS'available'
p917
I2794
sS'inspected'
p918
I952
sS'class'
p919
I3791
sS'width'
p920
I953
sS'accordingly'
p921
I954
sS'authorized'
p922
I955
sS'way'
p923
I956
sS'call'
p924
I958
sS'aerodrome'
p925
I999
sS'was'
p926
I960
sS'lowest'
p927
I961
sS'alloys'
p928
I962
sS'medium'
p929
I963
sS'gaseous'
p930
I964
sS'offering'
p931
I965
sS'manufacturers'
p932
I966
sS'differences'
p933
I967
sS'removes'
p934
I968
sS'encoder'
p935
I970
sS'idealized'
p936
I971
sS'failure'
p937
I972
sS'heat'
p938
I973
sS'magnitude'
p939
I3599
sS'solar'
p940
I974
sS'decoder'
p941
I975
sS'sustained'
p942
I976
sS'removed'
p943
I977
sS'true'
p944
I978
sS"publisher's"
p945
I3794
sS'reset'
p946
I1635
sS'bypassing'
p947
I981
sS'responding'
p948
I982
sS'pretension'
p949
I3067
sS'self\xe2\x80\x90sustained'
p950
I984
sS'assessment'
p951
I985
sS'his/her'
p952
I986
sS'attached'
p953
I1675
sS'maximum'
p954
I988
sS'devices'
p955
I989
sS'mtu'
p956
I990
sS'url'
p957
I3796
sS'3.5'
p958
I3068
sS'authorization'
p959
I2767
sS'solders'
p960
I3602
sS'lsas'
p961
I993
sS'optimisation'
p962
I994
sS'delete'
p963
I996
sS'150'
p964
I997
sS'khz'
p965
I998
sS'icon'
p966
I1588
sS'request'
p967
I3798
sS'decrypt'
p968
I1001
sS'unsaved'
p969
I1002
sS'covers'
p970
I1003
sS'evidence'
p971
I1004
sS'proves'
p972
I1005
sS'exist'
p973
I1006
sS'simulations'
p974
I1007
sS'floating'
p975
I1008
sS'check'
p976
I1010
sS'physical'
p977
I1011
sS'password'
p978
I4147
sS'encrypt'
p979
I1012
sS'controlarea.netinterchange'
p980
I1013
sS'floor'
p981
I1014
sS'agreeing'
p982
I1015
sS'when'
p983
I1017
sS'actor'
p984
I1018
sS'successful'
p985
I1020
sS'falsely'
p986
I1021
sS'rmps'
p987
I1022
sS'200ms'
p988
I1023
sS'test'
p989
I1024
sS'developers'
p990
I1026
sS'ksc-gp-864'
p991
I1027
sS'ui01'
p992
I1028
sS'tpse'
p993
I1029
sS'workspace'
p994
I3803
sS'models'
p995
I1031
sS'preceding'
p996
I1032
sS'felt'
p997
I1033
sS'update'
p998
I1034
sS'transported'
p999
I1035
sS'scale'
p1000
I3075
sS'intent'
p1001
I1037
sS'ridges'
p1002
I1038
sS'dissipation'
p1003
I1277
sS'discharge'
p1004
I1040
sS'flushed'
p1005
I1041
sS'longer'
p1006
I1045
sS'tested'
p1007
I2349
sS'assume'
p1008
I1047
sS'interval'
p1009
I1048
sS'packets'
p1010
I1049
sS'together'
p1011
I1050
sS'cohesion'
p1012
I1051
sS'5\xe2\x80\x9030'
p1013
I1052
sS'5\xe2\x80\x9031'
p1014
I1053
sS'smooth'
p1015
I4290
sS'reception'
p1016
I1055
sS'time'
p1017
I1056
sS'neighbors'
p1018
I1057
sS'measurements'
p1019
I3081
sS'managed'
p1020
I1059
sS'chain'
p1021
I1060
sS'switched'
p1022
I1061
sS'global'
p1023
I2207
sS'activated'
p1024
I1063
sS'primed'
p1025
I1064
sS'segr'
p1026
I1065
sS'switches'
p1027
I1066
sS'manager'
p1028
I1067
sS'supplement'
p1029
I1068
sS'activates'
p1030
I2259
sS'post-vibration'
p1031
I1071
sS'indefinite'
p1032
I4186
sS'row'
p1033
I1072
sS'layers'
p1034
I1073
sS'varnish'
p1035
I1074
sS'grapples'
p1036
I1076
sS'mallet'
p1037
I1077
sS'tariff'
p1038
I175
sS'flash'
p1039
I1079
sS'should'
p1040
I3832
sS'rel'
p1041
I3634
sS'environment'
p1042
I1080
sS'0'
I1081
sS'charge'
p1043
I1082
sS'biotope'
p1044
I1083
sS'text'
p1045
I1054
sS'aircraft-obstacle'
p1046
I1085
sS'must'
p1047
I177
sS'protective'
p1048
I1089
sS'lre'
p1049
I1090
sS'string'
p1050
I1091
sS'frequencies'
p1051
I1092
sS'images'
p1052
I3202
sS'choice'
p1053
I1094
sS'entries'
p1054
I1095
sS'word'
p1055
I179
sS'launchers'
p1056
I1097
sS'mil-'
p1057
I1098
sS'exact'
p1058
I1099
sS'minute'
p1059
I1100
sS'flammable'
p1060
I1101
sS'swapping'
p1061
I1102
sS'immediately'
p1062
I4145
sS'level'
p1063
I1103
sS'tear'
p1064
I1104
sS'who'
p1065
I3783
sS'0x0005'
p1066
I2506
sS'relifing'
p1067
I1106
sS'0x0003'
p1068
I1107
sS'standards'
p1069
I1109
sS'magnet'
p1070
I1110
sS'item'
p1071
I1111
sS'4.3.4'
p1072
I1112
sS'p-bit'
p1073
I1113
sS'cross-load-frequency'
p1074
I1114
sS'team'
p1075
I1115
sS'quick'
p1076
I1116
sS'loads'
p1077
I1117
sS'leads'
p1078
I3977
sS'round'
p1079
I1118
sS'unaware'
p1080
I1119
sS'inconsistent'
p1081
I1610
sS'read_all_flag'
p1082
I1121
sS'upper'
p1083
I1122
sS'trend'
p1084
I1123
sS'dealing'
p1085
I1124
sS'sign'
p1086
I1126
sS'cost'
p1087
I1128
sS'roof'
p1088
I186
sS'run'
p1089
I3096
sS'port'
p1090
I1131
sS'spectral'
p1091
I1132
sS'peel'
p1092
I898
sS'axes'
p1093
I1135
sS'current'
p1094
I1136
sS'bufferseq'
p1095
I144
sS'optional'
p1096
I3931
sS'goes'
p1097
I1139
sS'reply'
p1098
I1140
sS'staff'
p1099
I3821
sS'boost'
p1100
I1142
sS'bearers'
p1101
I1143
sS'filled'
p1102
I1144
sS'piconet'
p1103
I1145
sS'satisfy'
p1104
I1146
sS'xml'
p1105
I1618
sS'processing'
p1106
I3099
sS'transportation'
p1107
I1149
sS'ms'
p1108
I192
sS'containment'
p1109
I1744
sS'agreement'
p1110
I3101
sS'water'
p1111
I1154
sS'diluted'
p1112
I3810
sS'splice'
p1113
I1155
sS'address'
p1114
I1156
sS'['
I1157
sS'appears'
p1115
I1158
sS'change'
p1116
I1159
sS'transfer'
p1117
I4254
sS'box'
p1118
I1160
sS'sending'
p1119
I1161
sS'incoming'
p1120
I1162
sS'institute'
p1121
I1163
sS'20ms'
p1122
I1127
sS'transmit_bandwidth'
p1123
I1166
sS'timings'
p1124
I1167
sS're-sequence'
p1125
I1168
sS'accomplished'
p1126
I1169
sS'multicast'
p1127
I1170
sS'('
I3829
sS'apsme'
p1128
I602
sS'navigation'
p1129
I1172
sS'interrogations'
p1130
I1623
sS'ipc'
p1131
I1174
sS'tasks'
p1132
I1175
sS'useful'
p1133
I1176
sS'extra'
p1134
I2186
sS'problematic'
p1135
I1178
sS'f-bit'
p1136
I3032
sS'logical'
p1137
I1180
sS'losing'
p1138
I906
sS'vma2'
p1139
I1182
sS'ians'
p1140
I1183
sS'rarely'
p1141
I857
sS'market'
p1142
I1185
sS'horizontal'
p1143
I2428
sS'buttons'
p1144
I3833
sS'impacts'
p1145
I2374
sS'working'
p1146
I1188
sS'prove'
p1147
I1189
sS'turret'
p1148
I1190
sS'positive'
p1149
I1191
sS'stated'
p1150
I2375
sS'predictions'
p1151
I1194
sS'properties'
p1152
I911
sS'connector'
p1153
I1196
sS'handles'
p1154
I1197
sS'going'
p1155
I1629
sS'opposed'
p1156
I1199
sS'criteria'
p1157
I1200
sS'selects'
p1158
I1202
sS'cited'
p1159
I1203
sS'chapter'
p1160
I913
sS'sharing'
p1161
I1205
sS'conductor'
p1162
I1206
sS'oob'
p1163
I236
sS'outputs'
p1164
I1209
sS'perfocmed'
p1165
I1210
sS'apparent'
p1166
I1211
sS'validity'
p1167
I1212
sS'approving'
p1168
I1213
sS'visual'
p1169
I1215
sS'appendix'
p1170
I1216
sS'rigid'
p1171
I1217
sS'degrade'
p1172
I1218
sS'cases'
p1173
I1220
sS'effort'
p1174
I1222
sS'behalf'
p1175
I1224
sS'self-assign'
p1176
I1225
sS'fly'
p1177
I1226
sS'graphic'
p1178
I1227
sS'slcci'
p1179
I1229
sS'modified'
p1180
I1230
sS'reviews'
p1181
I1231
sS'descriptor'
p1182
I1232
sS'labeled'
p1183
I1233
sS'values'
p1184
I1234
sS'can'
p1185
I1235
sS'following'
p1186
I1236
sS'lubricant'
p1187
I1237
sS'detached'
p1188
I1238
sS'arrive'
p1189
I1239
sS'predeclared'
p1190
I1240
sS'cad'
p1191
I1241
sS'spy'
p1192
I1243
sS'muac'
p1193
I1244
sS'reflector'
p1194
I1245
sS'figure'
p1195
I1246
sS'mirrors'
p1196
I1247
sS'predict'
p1197
I1248
sS'anomalous'
p1198
I917
sS'chip'
p1199
I1250
sS'sense'
p1200
I2385
sS'agent'
p1201
I1252
sS'sample'
p1202
I1253
sS'spi'
p1203
I1254
sS'dropped'
p1204
I64
sS'allowed'
p1205
I1257
sS'distinguishable'
p1206
I1258
sS'occur'
p1207
I1259
sS'nas-designated'
p1208
I1261
sS'requirements'
p1209
I1262
sS'unintentional'
p1210
I3118
sS's2'
p1211
I1263
sS'secured'
p1212
I1264
sS'range'
p1213
I3119
sS'chemical'
p1214
I1266
sS'criterion'
p1215
I1267
sS's.'
p1216
I1268
sS'pure'
p1217
I1269
sS'pins'
p1218
I1271
sS'plus'
p1219
I919
sS'allowable'
p1220
I1273
sS'mpas'
p1221
I1274
sS'multiplexed'
p1222
I453
sS'secures'
p1223
I1276
sS'reconfigured'
p1224
I1075
sS'map'
p1225
I1278
sS'product'
p1226
I1279
sS'designer'
p1227
I1280
sS'crashes'
p1228
I1281
sS'information'
p1229
I2392
sS'strokes'
p1230
I1283
sS'use'
p1231
I3421
sS'spot'
p1232
I1285
sS'respective'
p1233
I2393
sS'residues'
p1234
I1287
sS'applications'
p1235
I1288
sS'produce'
p1236
I1289
sS'snr'
p1237
I1290
sS'designed'
p1238
I1291
sS'courses'
p1239
I1967
sS'date'
p1240
I1293
sS'such'
p1241
I1294
sS'destructive'
p1242
I1295
sS'data'
p1243
I1296
sS'0.0.0.0'
p1244
I1297
sS'stress'
p1245
I1299
sS'natural'
p1246
I1300
sS'liquid'
p1247
I1301
sS'beam'
p1248
I3856
sS'sr'
p1249
I1303
sS'sp'
p1250
I1304
sS'yielding'
p1251
I1306
sS'ghz'
p1252
I1307
sS'q'
I1308
sS'gatt'
p1253
I1309
sS'switch'
p1254
I1310
sS'ones'
p1255
I3857
sS'so'
p1256
I1311
sS'sl'
p1257
I1313
sS'definitions'
p1258
I1314
sS'provisions'
p1259
I4136
sS'se'
p1260
I1316
sS'1a'
p1261
I1489
sS'lsb'
p1262
I875
sS'shield'
p1263
I1319
sS'furnished'
p1264
I1320
sS'indeed'
p1265
I1321
sS'exchanges'
p1266
I942
sS'displayed'
p1267
I1323
sS'primitive'
p1268
I929
sS'entity'
p1269
I1325
sS'stability'
p1270
I1326
sS'ended'
p1271
I1327
sS'lst'
p1272
I1328
sS'fasteners'
p1273
I1329
sS'statistical'
p1274
I1331
sS'differs'
p1275
I1332
sS'solder'
p1276
I1333
sS'cold'
p1277
I1334
sS'still'
p1278
I1335
sS'ieee'
p1279
I1336
sS'subassembly'
p1280
I1337
sS'grout'
p1281
I1339
sS'jig'
p1282
I1340
sS'accepted'
p1283
I1931
sS'group'
p1284
I1341
sS'monitor'
p1285
I1342
sS'e=16'
p1286
I1343
sS'chips'
p1287
I3862
sS'organisation'
p1288
I1345
sS'facility'
p1289
I932
sS'vicinity'
p1290
I1347
sS'decreases'
p1291
I1348
sS'forms'
p1292
I3972
sS'platform'
p1293
I1350
sS'broadcasts'
p1294
I1153
sS'listing'
p1295
I1352
sS'main'
p1296
I1354
sS's1'
p1297
I1355
sS'apron'
p1298
I1357
sS'non'
p1299
I1358
sS'views'
p1300
I1360
sS'matches'
p1301
I1361
sS'processes'
p1302
I3865
sS'investigated'
p1303
I1849
sS'scaling'
p1304
I1364
sS'records'
p1305
I1365
sS'synchronisation'
p1306
I740
sS'qualified'
p1307
I1367
sS'tails'
p1308
I1368
sS'half'
p1309
I1369
sS'not'
p1310
I1370
sS'4.3.2.2c'
p1311
I1650
sS'now'
p1312
I4113
sS'ordinary'
p1313
I1373
sS'permissions'
p1314
I1374
sS'susceptibility'
p1315
I1375
sS'term'
p1316
I1376
sS'joinasrouter'
p1317
I1377
sS'name'
p1318
I1378
sS'i-frames'
p1319
I1379
sS'revert'
p1320
I1380
sS'establishing'
p1321
I1381
sS'peered'
p1322
I1382
sS'dids'
p1323
I1383
sS'h'
I1384
sS'did'
p1324
I2494
sS'limit'
p1325
I4296
sS'nlme'
p1326
I1385
sS'attribute\xe2\x80\x99s'
p1327
I1058
sS'individually'
p1328
I1387
sS'domain'
p1329
I1388
sS'square'
p1330
I1389
sS'retrieve'
p1331
I4247
sS'prompted'
p1332
I1391
sS'populated'
p1333
I1392
sS'cycled'
p1334
I4315
sS'gaussian'
p1335
I1394
sS'conventions'
p1336
I1395
sS'fires'
p1337
I1396
sS'owing'
p1338
I1397
sS'pre\xe2\x80\x90'
p1339
I1398
sS'entering'
p1340
I1399
sS'year'
p1341
I1400
sS'happen'
p1342
I1401
sS'ev'
p1343
I1402
sS'manufacturer\xe2\x80\x99s'
p1344
I548
sS'neighbourhood'
p1345
I1404
sS'plans'
p1346
I2414
sS'living'
p1347
I1406
sS'in_rand'
p1348
I452
sS'container'
p1349
I1408
sS'opened'
p1350
I1409
sS'space'
p1351
I1410
sS'device\xe2\x80\x99s'
p1352
I4047
sS'furthermore'
p1353
I1412
sS'interference'
p1354
I1413
sS'increase'
p1355
I1414
sS'contained'
p1356
I1415
sS'nominal'
p1357
I1416
sS'imperative'
p1358
I1417
sS'statically'
p1359
I1418
sS'receiving'
p1360
I37
sS'sensor'
p1361
I1420
sS'correct'
p1362
I1421
sS'assurance'
p1363
I1422
sS'shows'
p1364
I48
sS'creating'
p1365
I3896
sS'earlier'
p1366
I1424
sS'lmp'
p1367
I1425
sS'mapped'
p1368
I1663
sS'mechanisms'
p1369
I94
sS'familiarize'
p1370
I1430
sS'possibility'
p1371
I1431
sS'diagnostic'
p1372
I745
sS'complicated'
p1373
I1434
sS'codeblock\xe2\x80\x99s'
p1374
I1435
sS'mimi'
p1375
I1436
sS'byte'
p1376
I140
sS'remainder'
p1377
I1438
sS'e0'
p1378
I152
sS'card'
p1379
I1440
sS'care'
p1380
I1441
sS'training'
p1381
I1443
sS'fixed'
p1382
I3877
sS'workmanship'
p1383
I1445
sS'language'
p1384
I1446
sS'cross-load-frequency-control-area'
p1385
I1447
sS'transition'
p1386
I1449
sS'programming'
p1387
I1450
sS'catalog'
p1388
I2422
sS'motion'
p1389
I1452
sS'initiate'
p1390
I1453
sS'plane'
p1391
I2423
sS'separator'
p1392
I231
sS'invitation'
p1393
I1456
sS'mortars'
p1394
I246
sS'view'
p1395
I3879
sS'altitude'
p1396
I1460
sS'substrates'
p1397
I1461
sS'first'
p1398
I1462
sS'qualify'
p1399
I3988
sS'constantly'
p1400
I1463
sS'saving'
p1401
I1464
sS'withstand'
p1402
I1465
sS'predictive'
p1403
I3880
sS'clause'
p1404
I987
sS'rmp'
p1405
I1671
sS'ecp'
p1406
I3650
sS'one'
p1407
I1468
sS'x\xe2\x80\x90ray'
p1408
I1469
sS'long'
p1409
I1471
sS'suspended'
p1410
I341
sS'cdrl'
p1411
I1473
sS'carry'
p1412
I1474
sS'compared'
p1413
I4323
sS'array'
p1414
I354
sS'annulment'
p1415
I3149
sS'open'
p1416
I1477
sS'angular'
p1417
I1478
sS'discharged'
p1418
I1479
sS'size'
p1419
I369
sS'given'
p1420
I1481
sS'necessarily'
p1421
I1482
sS'sheet'
p1422
I383
sS'district'
p1423
I1484
sS'meaningful'
p1424
I1485
sS'eshre'
p1425
I1487
sS'plastic'
p1426
I422
sS'stimulation'
p1427
I427
sS'indicate'
p1428
I1490
sS'returns'
p1429
I1491
sS'2'
I1492
sS'moisture'
p1430
I1493
sS'r-req4.2-3'
p1431
I3884
sS'r\xe2\x80\x90s'
p1432
I455
sS'structures'
p1433
I461
sS'cite'
p1434
I466
sS'vapours'
p1435
I1498
sS'23.501'
p1436
I1499
sS'eyes'
p1437
I1500
sS'mostly'
p1438
I491
sS'that'
p1439
I1502
sS'asymmetric'
p1440
I1503
sS'multi-byte'
p1441
I3886
sS'continuous'
p1442
I1505
sS'accurately'
p1443
I1507
sS'broadcast'
p1444
I1508
sS'released'
p1445
I1509
sS'copv'
p1446
I1510
sS'packet'
p1447
I3887
sS'specialists'
p1448
I1513
sS'non-radio'
p1449
I1514
sS'representing'
p1450
I1515
sS'than'
p1451
I1516
sS'specify'
p1452
I1517
sS'wide'
p1453
I569
sS'13'
p1454
I1519
sS'12'
p1455
I578
sS'impractical'
p1456
I584
sS'14'
p1457
I1522
sS'17'
p1458
I1523
sS'accordance'
p1459
I594
sS'18'
p1460
I1525
sS'require'
p1461
I1526
sS'spalls'
p1462
I1527
sS'transferred'
p1463
I1528
sS'modelled'
p1464
I1529
sS'coats'
p1465
I1530
sS'protected'
p1466
I777
sS'opens'
p1467
I3157
sS'were'
p1468
I1533
sS'tremie'
p1469
I1534
sS'wrap-around'
p1470
I1535
sS'outcome'
p1471
I1536
sS'pre'
p1472
I670
sS'files'
p1473
I1538
sS'addressing'
p1474
I1539
sS'mated'
p1475
I1540
sS'information-rich'
p1476
I1541
sS'topics'
p1477
I696
sS'turned'
p1478
I1543
sS'locations'
p1479
I1544
sS'sae'
p1480
I1545
sS'headquarters'
p1481
I1546
sS'exchanging'
p1482
I1548
sS'invalidates'
p1483
I1214
sS'browsegroupdescriptorserviceclassid'
p1484
I344
sS'occupied'
p1485
I1551
sS'any'
p1486
I1552
sS'conversion'
p1487
I769
sS'form'
p1488
I1555
sS'downwards'
p1489
I1556
sS'instructed'
p1490
I1557
sS'note'
p1491
I1558
sS'equipment'
p1492
I1559
sS'potential'
p1493
I1560
sS'take'
p1494
I1561
sS'fracture'
p1495
I1562
sS"activity's"
p1496
I1563
sS'objective'
p1497
I1564
sS'performance'
p1498
I1565
sS'projects'
p1499
I3039
sS'switching'
p1500
I1567
sS'channel'
p1501
I1568
sS'long-life'
p1502
I1569
sS'200'
p1503
I1570
sS'begin'
p1504
I1571
sS'fcs'
p1505
I1572
sS'multiple'
p1506
I1573
sS'trace'
p1507
I1574
sS'normal'
p1508
I887
sS'track'
p1509
I889
sS'price'
p1510
I1577
sS'correlation'
p1511
I1009
sS'molecule'
p1512
I1579
sS'sub-unit'
p1513
I1439
sS'fcc'
p1514
I1580
sS'printed'
p1515
I1581
sS'rationale'
p1516
I1582
sS'successive'
p1517
I934
sS'pair'
p1518
I1584
sS'analytically'
p1519
I946
sS'precludes'
p1520
I1486
sS'pages'
p1521
I1587
sS'damage'
p1522
I3037
sS'probes'
p1523
I959
sS'linux\xe2\x80\x90based'
p1524
I1589
sS'forever'
p1525
I1590
sS'especially'
p1526
I1591
sS'notifications'
p1527
I1592
sS'considered'
p1528
I1593
sS'average'
p1529
I1594
sS'later'
p1530
I1595
sS'hungry'
p1531
I1596
sS'affected_gamut_seq_num'
p1532
I1597
sS'slaves'
p1533
I1598
sS'pattern'
p1534
I3902
sS'pwb'
p1535
I2798
sS'typically'
p1536
I1601
sS'quantity'
p1537
I1602
sS'rating'
p1538
I1603
sS'qos'
p1539
I1604
sS'show'
p1540
I185
sS'diode'
p1541
I1692
sS'able'
p1542
I3765
sS'synchronous'
p1543
I1607
sS'longitudinal'
p1544
I3555
sS'right-facing'
p1545
I1608
sS'tsniff'
p1546
I1609
sS'drawings'
p1547
I1120
sS'encoded'
p1548
I1611
sS'threshold'
p1549
I1612
sS'corner'
p1550
I1613
sS'forecast'
p1551
I1694
sS'tpm\xe2\x80\x99s'
p1552
I1615
sS'line'
p1553
I3170
sS'ground'
p1554
I1617
sS'slot'
p1555
I1147
sS'fibre'
p1556
I1619
sS'specifically'
p1557
I3148
sS'ratio'
p1558
I1620
sS'entities'
p1559
I3834
sS'conduction'
p1560
I1622
sS"frame's"
p1561
I1173
sS'crimped'
p1562
I1624
sS'enough'
p1563
I2052
sS'42'
p1564
I4326
sS'only'
p1565
I1628
sS'explicitly'
p1566
I713
sS'black'
p1567
I1201
sS'unauthenticated'
p1568
I2448
sS'concurrence'
p1569
I1632
sS'phased'
p1570
I3908
sS'overwritten'
p1571
I1634
sS'dissimilar'
p1572
I1260
sS'witness'
p1573
I4280
sS'lug'
p1574
I3910
sS'designated'
p1575
I1638
sS'protocoldescriptorlist'
p1576
I1639
sS'satisfied'
p1577
I1640
sS'de-mate'
p1578
I1641
sS'cannot'
p1579
I1642
sS'conjunction'
p1580
I1644
sS'ssa'
p1581
I1645
sS'geometric'
p1582
I1703
sS'secondary'
p1583
I1647
sS'closure'
p1584
I1648
sS'reveal'
p1585
I1649
sS'resource'
p1586
I1371
sS'consist'
p1587
I3176
sS'held'
p1588
I2452
sS'explore'
p1589
I3369
sS'restarted'
p1590
I3275
sS'cross-control-area'
p1591
I1654
sS'thermal'
p1592
I2453
sS'yield'
p1593
I1656
sS'checks'
p1594
I1705
sS'naked'
p1595
I1658
sS'arrays'
p1596
I1659
sS'predicted'
p1597
I1661
sS'cid:147'
p1598
I1428
sS'cid:148'
p1599
I1664
sS'atsr'
p1600
I1665
sS'where'
p1601
I1666
sS'communicated'
p1602
I1667
sS'silently'
p1603
I1668
sS'non\xe2\x80\x90'
p1604
I1669
sS'manages'
p1605
I2235
sS'ignored'
p1606
I1670
sS'declared'
p1607
I1467
sS'partner/participant'
p1608
I1470
sS'burst'
p1609
I1673
sS'physically'
p1610
I1674
sS'notice'
p1611
I1709
sS'bounds'
p1612
I1678
sS'relative'
p1613
I637
sS'rmc'
p1614
I1680
sS'com-'
p1615
I1681
sS'geocast'
p1616
I1682
sS'top-level'
p1617
I1683
sS'connected'
p1618
I3787
sS'constraints'
p1619
I4232
sS'concern'
p1620
I1684
sS'surfaces'
p1621
I1685
sS'fails'
p1622
I1686
sS'invoked'
p1623
I1687
sS'vertical'
p1624
I1710
sS'compounds'
p1625
I1689
sS'subsequent'
p1626
I1690
sS'review'
p1627
I1691
sS'definite'
p1628
I1606
sS'sites'
p1629
I1693
sS'label'
p1630
I1614
sS'boundaries'
p1631
I1695
sS'outside'
p1632
I1697
sS'ua'
p1633
I3189
sS'invokes'
p1634
I1699
sS'between'
p1635
I1700
sS'import'
p1636
I1702
sS'justified'
p1637
I1646
sS'packet_type'
p1638
I1704
sS'across'
p1639
I1657
sS'non\xe2\x80\x90metallic'
p1640
I1707
sS'multiplied'
p1641
I1708
sS'turn-on'
p1642
I1677
sS'parent'
p1643
I1688
sS'unlocks'
p1644
I1711
sS'approvals'
p1645
I1712
sS'bimetallic'
p1646
I398
sS'flow'
p1647
I3197
sS'nvidea'
p1648
I1717
sS'implemented'
p1649
I1630
sS'9001'
p1650
I1719
sS'outgassing'
p1651
I1721
sS'come'
p1652
I1722
sS'originates'
p1653
I1724
sS'concentrated'
p1654
I1725
sS'reaction'
p1655
I1726
sS'max_latency'
p1656
I1727
sS'pass-through'
p1657
I1728
sS'installation'
p1658
I1729
sS'missions'
p1659
I1730
sS'many'
p1660
I1731
sS'region'
p1661
I1732
sS'according'
p1662
I1734
sS'contract'
p1663
I1735
sS'called'
p1664
I3190
sS'personal'
p1665
I376
sS's'
I1737
sS'opcode'
p1666
I1738
sS'pasted'
p1667
I1739
sS'railway'
p1668
I1740
sS'expression'
p1669
I1741
sS'tooling'
p1670
I1718
sS'contractually'
p1671
I1742
sS'among'
p1672
I1743
sS'bricks'
p1673
I1745
sS'continuation'
p1674
I861
sS'hybrids'
p1675
I1747
sS'authenticity'
p1676
I4312
sS'period'
p1677
I1748
sS','
I292
sS'60'
p1678
I1750
sS'maintained'
p1679
I1751
sS'anti'
p1680
I1752
sS'losses'
p1681
I2296
sS'cancel'
p1682
I1755
sS'associated'
p1683
I3193
sS'crew'
p1684
I1757
sS'considers'
p1685
I1758
sS'considering'
p1686
I1759
sS'orientated'
p1687
I2941
sS'cycling'
p1688
I1761
sS'subscribed'
p1689
I1762
sS'capable'
p1690
I1763
sS'mounting'
p1691
I1764
sS'15ms'
p1692
I1016
sS'certify'
p1693
I1766
sS'informed'
p1694
I1767
sS'absence'
p1695
I2468
sS'deposited'
p1696
I1770
sS'combined'
p1697
I1771
sS'factored'
p1698
I4122
sS'compromise'
p1699
I2607
sS'time-out'
p1700
I1773
sS'prototype'
p1701
I1774
sS'ideographs'
p1702
I1775
sS'systems'
p1703
I2470
sS'wants'
p1704
I1777
sS'direction'
p1705
I1778
sS'enable'
p1706
I1779
sS'through'
p1707
I2454
sS'non-conforming'
p1708
I2471
sS'filter'
p1709
I1497
sS'formed'
p1710
I1784
sS'wires'
p1711
I2515
sS'traversal'
p1712
I1786
sS'voice_settings'
p1713
I3256
sS'observe'
p1714
I921
sS'wake'
p1715
I1789
sS'external'
p1716
I1790
sS'lead-through'
p1717
I1791
sS'masonry'
p1718
I1792
sS'4.2.3.5a'
p1719
I1793
sS'former'
p1720
I1794
sS'those'
p1721
I1795
sS'sound'
p1722
I498
sS'reed\xe2\x80\x90solomon'
p1723
I1797
sS'4-3'
p1724
I1798
sS'disconnected'
p1725
I1799
sS'developing'
p1726
I1801
sS'these'
p1727
I1802
sS'consultant'
p1728
I1803
sS'mount'
p1729
I1804
sS'telemetry'
p1730
I1885
sS'consulted'
p1731
I2969
sS'profiles'
p1732
I1806
sS'w'
I2567
sS'cage-type'
p1733
I1807
sS'ignition'
p1734
I1808
sS'disabled'
p1735
I2451
sS'1101'
p1736
I1809
sS'cancelled'
p1737
I1810
sS'situation'
p1738
I1811
sS'mechanical'
p1739
I3804
sS'margin'
p1740
I1812
sS'aluminium'
p1741
I1813
sS'iva'
p1742
I1814
sS'sample_flat.spx'
p1743
I1815
sS'eventually'
p1744
I1816
sS'characteristics'
p1745
I1817
sS'metric'
p1746
I1818
sS'engaged'
p1747
I1819
sS'telephone'
p1748
I1820
sS'discrepancy'
p1749
I2353
sS'equal'
p1750
I3943
sS'middle'
p1751
I1822
sS'sudden'
p1752
I1823
sS'ambient'
p1753
I1824
sS'litres'
p1754
I1936
sS'receptacle'
p1755
I1827
sS'08a'
p1756
I1828
sS'movements'
p1757
I1829
sS'bags'
p1758
I1830
sS'different'
p1759
I1831
sS'verified'
p1760
I1221
sS'propagation'
p1761
I1736
sS'spec'
p1762
I359
sS'wiring'
p1763
I1835
sS'cost-'
p1764
I1836
sS'same'
p1765
I1837
sS'surveillance'
p1766
I1838
sS'gparted'
p1767
I1839
sS'authentication'
p1768
I1840
sS'html'
p1769
I1841
sS'distilled'
p1770
I1842
sS'mand'
p1771
I1843
sS'document'
p1772
I1844
sS'events'
p1773
I1845
sS'pan'
p1774
I1846
sS'week'
p1775
I980
sS'srej'
p1776
I1848
sS'finish'
p1777
I312
sS'nest'
p1778
I1850
sS'collide'
p1779
I1851
sS'driven'
p1780
I1852
sS'annulled'
p1781
I1853
sS'running'
p1782
I1854
sS'conductors'
p1783
I1855
sS'attributes'
p1784
I3947
sS'changing'
p1785
I1857
sS'validate'
p1786
I1858
sS'totally'
p1787
I1859
sS'cross'
p1788
I4046
sS'applicant'
p1789
I3741
sS'relies'
p1790
I1860
sS'threaded'
p1791
I1861
sS'modes'
p1792
I1862
sS'no'
p1793
I1865
sS'ccm'
p1794
I1866
sS'authoritative'
p1795
I1867
sS'severe'
p1796
I1868
sS'without'
p1797
I1869
sS'solve'
p1798
I1870
sS'relief'
p1799
I1871
sS'components'
p1800
I1872
sS'relied'
p1801
I1873
sS'coordinate'
p1802
I1874
sS'termination'
p1803
I1875
sS'model'
p1804
I1876
sS'dimension'
p1805
I1877
sS'charged'
p1806
I1878
sS'tobt'
p1807
I1879
sS'sprayed'
p1808
I1881
sS'aborted'
p1809
I1883
sS'being'
p1810
I1884
sS'notification'
p1811
I885
sS're-verification'
p1812
I3954
sS'actions'
p1813
I1887
sS'schools'
p1814
I1888
sS'cease'
p1815
I1890
sS'leeway'
p1816
I1891
sS're-certification'
p1817
I1892
sS'kpa'
p1818
I4189
sS'minimized'
p1819
I1432
sS'speed'
p1820
I1894
sS'multiples'
p1821
I1895
sS'seb'
p1822
I3737
sS'sampled'
p1823
I1897
sS'death'
p1824
I1898
sS'cm'
p1825
I3956
sS'generator'
p1826
I1165
sS'application'
p1827
I3214
sS'5.5.9'
p1828
I1902
sS'aggregator'
p1829
I1903
sS'except'
p1830
I1905
sS'improvement'
p1831
I1906
sS'instrument'
p1832
I1907
sS'lets'
p1833
I1908
sS'setting'
p1834
I1909
sS'4'
I1910
sS'samples'
p1835
I1911
sS'aborts'
p1836
I1448
sS'role'
p1837
I3171
sS'polarized'
p1838
I2626
sS'momentum'
p1839
I460
sS'scheduled'
p1840
I1916
sS'psi'
p1841
I1917
sS'multi-layer'
p1842
I1918
sS'around'
p1843
I1919
sS'easily'
p1844
I2485
sS'ama'
p1845
I1920
sS'rejoin'
p1846
I1921
sS'specimen'
p1847
I1922
sS'digital'
p1848
I1923
sS'pse'
p1849
I1924
sS'early'
p1850
I1925
sS'traffic'
p1851
I1926
sS'scheduler'
p1852
I1927
sS'vacuum'
p1853
I1928
sS'reconfiguration'
p1854
I1929
sS'using'
p1855
I1930
sS'sampling'
p1856
I1749
sS'blankets'
p1857
I1932
sS'color'
p1858
I1934
sS'ruled'
p1859
I1935
sS'particle'
p1860
I1937
sS'identifying'
p1861
I1938
sS'reduces'
p1862
I1939
sS'serves'
p1863
I1940
sS'server'
p1864
I1941
sS'facing'
p1865
I1942
sS'chamber'
p1866
I1943
sS'benefit'
p1867
I1944
sS'106.68'
p1868
I1945
sS'either'
p1869
I1946
sS'+35\xc2\xb0c'
p1870
I1947
sS'drainage'
p1871
I1105
sS'output'
p1872
I1949
sS'revision'
p1873
I3222
sS'stationary'
p1874
I1950
sS'reduced'
p1875
I1951
sS'.063'
p1876
I1952
sS'fulfil'
p1877
I1953
sS'reaches'
p1878
I3679
sS'exposed'
p1879
I1954
sS'zigbee'
p1880
I1955
sS'specified'
p1881
I1958
sS'duration'
p1882
I1959
sS'co\xe2\x80\x90passengers'
p1883
I3227
sS'ascent'
p1884
I1961
sS'matching'
p1885
I1962
sS'users'
p1886
I3228
sS'provided'
p1887
I1964
sS'poll'
p1888
I1965
sS'dimensions'
p1889
I1966
sS'confirm'
p1890
I1753
sS'cavity'
p1891
I1968
sS'ability'
p1892
I3919
sS'recorded'
p1893
I1969
sS'fluids'
p1894
I1970
sS'stops'
p1895
I1042
sS'conservative'
p1896
I3006
sS'consuming'
p1897
I2850
sS'critical'
p1898
I991
sS'decomposition'
p1899
I1974
sS'inject'
p1900
I1975
sS'provides'
p1901
I1976
sS'provider'
p1902
I1977
sS'refer'
p1903
I1978
sS'process'
p1904
I3474
sS'dimensionally'
p1905
I1979
sS'assembly'
p1906
I1980
sS'scientific'
p1907
I1981
sS'power'
p1908
I1982
sS'seconds'
p1909
I1984
sS'equivalent'
p1910
I1985
sS'communicate'
p1911
I1986
sS'flushes'
p1912
I1783
sS'broken'
p1913
I1988
sS'papered'
p1914
I1990
sS'found'
p1915
I2499
sS'standpoint'
p1916
I1992
sS'refers'
p1917
I1993
sS'manufacturer'
p1918
I1994
sS'comparison'
p1919
I1995
sS'conducting'
p1920
I1996
sS'central'
p1921
I1997
sS'package'
p1922
I1999
sS'of'
p1923
I2000
sS'disabilities'
p1924
I2001
sS'discussed'
p1925
I2002
sS'bonding'
p1926
I3235
sS'acl'
p1927
I2004
sS'stipulations'
p1928
I2005
sS'stand'
p1929
I138
sS'baffles'
p1930
I2008
sS'act'
p1931
I2009
sS'mixed'
p1932
I2010
sS'notifies'
p1933
I2011
sS'backup'
p1934
I2012
sS'6.6.1.b'
p1935
I1765
sS'eirene'
p1936
I2014
sS'subsystem'
p1937
I2504
sS'referenced'
p1938
I1720
sS'mil-b-7883'
p1939
I2017
sS'non-conformance'
p1940
I2018
sS'redshift'
p1941
I576
sS'beacons'
p1942
I2020
sS'communication'
p1943
I2021
sS'image'
p1944
I2022
sS'copies'
p1945
I3981
sS'variable'
p1946
I1039
sS'l2cap'
p1947
I758
sS'redispatching'
p1948
I3982
sS'determine'
p1949
I2026
sS'heated'
p1950
I1349
sS'operator'
p1951
I2028
sS'accumulated'
p1952
I2029
sS'springs'
p1953
I4180
sS'your'
p1954
I2030
sS'intervention'
p1955
I2031
sS'legacy'
p1956
I3890
sS'inadvertent'
p1957
I774
sS'area'
p1958
I2034
sS'assumed'
p1959
I2035
sS'strictly'
p1960
I2036
sS'there'
p1961
I2037
sS'disposed'
p1962
I2038
sS'deadlines'
p1963
I2039
sS'ehf'
p1964
I2040
sS'start'
p1965
I2041
sS'compliant'
p1966
I2042
sS'low'
p1967
I2043
sS'heterogenic'
p1968
I1433
sS'dumping'
p1969
I2045
sS'actuator'
p1970
I2046
sS're-entrant'
p1971
I2047
sS'materials'
p1972
I2048
sS'passports'
p1973
I2049
sS'complete'
p1974
I2051
sS'fixture'
p1975
I2514
sS'crewmembers'
p1976
I3987
sS'independently'
p1977
I3243
sS'burrs'
p1978
I2055
sS'locks'
p1979
I3454
sS'wiping'
p1980
I2057
sS'land'
p1981
I3244
sS'impedance'
p1982
I2059
sS'technologies'
p1983
I2060
sS'with'
p1984
I2061
sS'copied'
p1985
I3989
sS'subcontractors'
p1986
I2063
sS'of/underneath'
p1987
I2064
sS'ecss\xe2\x80\x90e\xe2\x80\x90st\xe2\x80\x9032\xe2\x80\x9001'
p1988
I2065
sS'rotation'
p1989
I4110
sS'embedded'
p1990
I2066
sS'bandwidths'
p1991
I1696
sS'desiccants'
p1992
I2068
sS'bucket'
p1993
I858
sS'implementers'
p1994
I2070
sS'operationally'
p1995
I2071
sS'emissions'
p1996
I2072
sS'4.6.4d'
p1997
I2074
sS'>'
I3992
sS'agree'
p1998
I2075
sS'detailed'
p1999
I2077
sS'gone'
p2000
I2078
sS'ac'
p2001
I2079
sS'required'
p2002
I3249
sS'contributors'
p2003
I2081
sS'ai'
p2004
I2082
sS'certain'
p2005
I2083
sS'ners'
p2006
I2084
sS'describe'
p2007
I2085
sS'moved'
p2008
I2086
sS'brittleness'
p2009
I2088
sS'general'
p2010
I2089
sS'alarm'
p2011
I2090
sS'as'
p2012
I2091
sS'reliability'
p2013
I2092
sS'associating'
p2014
I2093
sS'at'
p2015
I2094
sS'file'
p2016
I2095
sS'formulation'
p2017
I2096
sS'lifetime'
p2018
I2097
sS'gradients'
p2019
I2098
sS'withdrawal'
p2020
I2755
sS'cables'
p2021
I2099
sS'operation'
p2022
I2520
sS'film'
p2023
I2101
sS'fill'
p2024
I2102
sS'allowables'
p2025
I2103
sS'again'
p2026
I2104
sS'amendments'
p2027
I2105
sS'beyond'
p2028
I2521
sS'antenna'
p2029
I2107
sS'4.2'
p2030
I2108
sS'nwkaddralloc'
p2031
I2109
sS'personnel'
p2032
I2110
sS'3.58'
p2033
I1782
sS'hybrid'
p2034
I2113
sS'fastener'
p2035
I2114
sS'iot'
p2036
I4061
sS'u-r2p'
p2037
I2115
sS'rubber'
p2038
I2116
sS'field'
p2039
I2117
sS'valid'
p2040
I2118
sS'5'
I2119
sS'deuterated'
p2041
I4123
sS'spatial'
p2042
I2120
sS'you'
p2043
I2122
sS'800-57'
p2044
I2523
sS'gaining'
p2045
I2123
sS'requested'
p2046
I2124
sS'standardize'
p2047
I2126
sS'open-ended'
p2048
I2127
sS'separate'
p2049
I2128
sS'3.59'
p2050
I2129
sS'symbol'
p2051
I2130
sS'u-r'
p2052
I3046
sS'drift'
p2053
I2131
sS'custom-made'
p2054
I2132
sS'includes'
p2055
I2133
sS'left-justified'
p2056
I2134
sS'important'
p2057
I2135
sS'elastomers'
p2058
I196
sS'coverage'
p2059
I2137
sS'fresh'
p2060
I3258
sS'included'
p2061
I2139
sS'brass'
p2062
I2140
sS'readings'
p2063
I2141
sS'legal'
p2064
I3273
sS'building'
p2065
I2142
sS'booked'
p2066
I2143
sS'condensation'
p2067
I2144
sS'remote'
p2068
I2145
sS'assets'
p2069
I2146
sS'-6v'
p2070
I215
sS'waived'
p2071
I2148
sS'requires'
p2072
I3260
sS'adsorbed'
p2073
I2150
sS'crash'
p2074
I4039
sS'mask'
p2075
I823
sS'finished'
p2076
I3999
sS'fuse'
p2077
I1019
sS'having'
p2078
I3261
sS'posts'
p2079
I2511
sS'directors'
p2080
I2155
sS'qsp'
p2081
I1788
sS'mass'
p2082
I2157
sS'6.1.5a'
p2083
I2158
sS'6.1.5b'
p2084
I2159
sS'quantify'
p2085
I2160
sS'cps'
p2086
I2161
sS'starting'
p2087
I803
sS'original'
p2088
I2163
sS'cpv'
p2089
I2164
sS'mannequin'
p2090
I4000
sS'cdc_hec_report_state'
p2091
I2165
sS'represent'
p2092
I2166
sS'externally'
p2093
I6
sS'consider'
p2094
I2168
sS'ceases'
p2095
I18
sS'microfarads'
p2096
I2170
sS'rx'
p2097
I362
sS'lack'
p2098
I2172
sS'disassembled'
p2099
I2173
sS'scc'
p2100
I2175
sS'ecss\xe2\x80\x90e\xe2\x80\x90st\xe2\x80\x9032'
p2101
I2176
sS'spacecraft'
p2102
I2177
sS'browsers'
p2103
I2178
sS'generalize'
p2104
I46
sS'follow'
p2105
I2180
sS'expressions'
p2106
I2181
sS'disk'
p2107
I2182
sS'decisions'
p2108
I2183
sS'children'
p2109
I79
sS'causes'
p2110
I2185
sS'particles'
p2111
I2187
sS'mating'
p2112
I3247
sS'batches'
p2113
I2188
sS'mpas/uk'
p2114
I2190
sS'tx'
p2115
I2191
sS're'
p2116
I2192
sS'tv'
p2117
I2193
sS'subjected'
p2118
I2194
sS'tr'
p2119
I129
sS'ts'
p2120
I2196
sS'to'
p2121
I2198
sS'tl'
p2122
I2199
sS'program'
p2123
I2200
sS'stochastic'
p2124
I2201
sS'expired'
p2125
I3790
sS'te'
p2126
I2202
sS'validation_underway'
p2127
I2204
sS'case'
p2128
I1796
sS'returned'
p2129
I2255
sS'confidential'
p2130
I2209
sS'plastering'
p2131
I2210
sS'very'
p2132
I227
sS'fas'
p2133
I2212
sS'mpl'
p2134
I2213
sS'coloured'
p2135
I1427
sS'perihelion'
p2136
I2215
sS'worst'
p2137
I178
sS'difficult'
p2138
I4055
sS'fall'
p2139
I2217
sS'ticket'
p2140
I2218
sS'difference'
p2141
I2219
sS'iut'
p2142
I2221
sS'securely'
p2143
I296
sS'trigger'
p2144
I4260
sS'retested'
p2145
I2223
sS'splitter'
p2146
I2224
sS'extrusion'
p2147
I2225
sS'cable'
p2148
I2226
sS'--'
p2149
I2227
sS'issue'
p2150
I2538
sS'clinched'
p2151
I2229
sS'list'
p2152
I2230
sS'applicable'
p2153
I346
sS'trench'
p2154
I356
sS'sand'
p2155
I2234
sS'adjust'
p2156
I367
sS'lisn'
p2157
I2236
sS'variances'
p2158
I2237
sS'small'
p2159
I2238
sS'joiner'
p2160
I2239
sS'economically'
p2161
I2240
sS'programme'
p2162
I2241
sS'photo\xe2\x80\x90emission'
p2163
I419
sS'neighborhood'
p2164
I2244
sS'tea'
p2165
I2246
sS'tolerance'
p2166
I2247
sS'3'
I3509
sS'disconnect'
p2167
I3929
sS'current_gamut_seq_num'
p2168
I2248
sS'req-33'
p2169
I2249
sS'zero'
p2170
I464
sS'timescales'
p2171
I473
sS'displays'
p2172
I2252
sS'pass'
p2173
I2253
sS'link'
p2174
I3168
sS'further'
p2175
I2254
sS'linear'
p2176
I2256
sS'residue'
p2177
I2257
sS'what'
p2178
I2258
sS'sub'
p2179
I2260
sS'4.1.2'
p2180
I521
sS'clock'
p2181
I2262
sS'sun'
p2182
I2263
sS'section'
p2183
I534
sS'superordinated'
p2184
I2265
sS'alternatives'
p2185
I2266
sS'thickness'
p2186
I2267
sS'depressing'
p2187
I3714
sS'version'
p2188
I2268
sS'd.2'
p2189
I2269
sS'interlaced'
p2190
I2270
sS's/pdif'
p2191
I595
sS'themselves'
p2192
I3432
sS'movement'
p2193
I2272
sS'outgoing'
p2194
I2273
sS'full'
p2195
I2274
sS'installations'
p2196
I2275
sS'tags'
p2197
I2276
sS'modify'
p2198
I640
sS'hours'
p2199
I1733
sS'baseplate'
p2200
I2280
sS'selective'
p2201
I2281
sS'operating'
p2202
I2282
sS'uuids'
p2203
I669
sS'excess'
p2204
I2284
sS'directions'
p2205
I2285
sS'depend'
p2206
I2286
sS'method'
p2207
I2287
sS'strong'
p2208
I682
sS'table'
p2209
I3966
sS'transformation'
p2210
I2290
sS'interposed'
p2211
I2291
sS'search'
p2212
I2292
sS'increments'
p2213
I2293
sS'sender'
p2214
I2294
sS'ahead'
p2215
I2295
sS'compliance'
p2216
I729
sS'allows'
p2217
I730
sS'welded'
p2218
I734
sS'experience'
p2219
I2299
sS'prior'
p2220
I2300
sS'amount'
p2221
I2301
sS'supplements'
p2222
I2302
sS'breakdown'
p2223
I2505
sS'stiffness'
p2224
I2303
sS'pick'
p2225
I2304
sS'action'
p2226
I2305
sS'sidelobes'
p2227
I2306
sS'options'
p2228
I2307
sS'paired'
p2229
I4363
sS'via'
p2230
I2308
sS'family'
p2231
I2309
sS'integrator'
p2232
I2310
sS'deployment'
p2233
I4143
sS'line-to-ground'
p2234
I2311
sS'utilisation'
p2235
I848
sS'texts'
p2236
I2314
sS'follower'
p2237
I2315
sS'chunks'
p2238
I2316
sS'inorganic'
p2239
I2317
sS'establish'
p2240
I2319
sS'estimate'
p2241
I2320
sS'select'
p2242
I2321
sS'poor'
p2243
I4169
sS'easy-to-use'
p2244
I2322
sS'conventional'
p2245
I2323
sS'earliest'
p2246
I2551
sS'flaws'
p2247
I907
sS'astm'
p2248
I912
sS'injure'
p2249
I2327
sS'distinct'
p2250
I2328
sS'objectives'
p2251
I925
sS'destination'
p2252
I930
sS'single'
p2253
I3203
sS'two'
p2254
I937
sS'damaged'
p2255
I2332
sS'spectrogram'
p2256
I2333
sS'magnification'
p2257
I2334
sS'audit'
p2258
I4072
sS'soil'
p2259
I2335
sS'taken'
p2260
I2336
sS'markets'
p2261
I2337
sS'preloaded'
p2262
I2338
sS'minor'
p2263
I2339
sS'more'
p2264
I2340
sS'knows'
p2265
I2341
sS'initiated'
p2266
I2342
sS'materiel'
p2267
I2343
sS'immersion'
p2268
I1317
sS'company'
p2269
I2345
sS'marks'
p2270
I2346
sS'corrected'
p2271
I2347
sS'emission'
p2272
I2348
sS'initiates'
p2273
I1046
sS'flag'
p2274
I2350
sS'moistened'
p2275
I2351
sS'controlling'
p2276
I2352
sS'impulse'
p2277
I2354
sS'varying'
p2278
I1062
sS'known'
p2279
I2356
sS'mounted'
p2280
I2357
sS'sizing'
p2281
I1088
sS'none'
p2282
I1093
sS'gravel'
p2283
I3292
sS'hour'
p2284
I2361
sS'recall'
p2285
I2362
sS'equation'
p2286
I2363
sS'launch'
p2287
I2364
sS'other'
p2288
I4330
sS'remain'
p2289
I2366
sS'paragraph'
p2290
I1956
sS'nine'
p2291
I146
sS'resources'
p2292
I3294
sS'v'
I2370
sS'specialized'
p2293
I2371
sS'history'
p2294
I2372
sS'ions'
p2295
I1177
sS'synchronized'
p2296
I1187
sS'scan'
p2297
I1193
sS'stacking'
p2298
I2376
sS'joints'
p2299
I2377
sS'share'
p2300
I2378
sS'retest'
p2301
I1893
sS'accept'
p2302
I2380
sS'states'
p2303
I2381
sS'collision'
p2304
I2382
sS'minimum'
p2305
I2383
sS'wet'
p2306
I4129
sS'fault/break'
p2307
I567
sS'airplane'
p2308
I2386
sS'dress'
p2309
I2387
sS'species'
p2310
I2388
sS'bonded'
p2311
I2389
sS'axis'
p2312
I2390
sS'terrestrial'
p2313
I2391
sS'5.1'
p2314
I1282
sS'needs'
p2315
I1286
sS'5.4'
p2316
I2394
sS'drained'
p2317
I2395
sS'5.7'
p2318
I2396
sS'rather'
p2319
I2397
sS'technology'
p2320
I2398
sS'acts'
p2321
I2399
sS'plated-through'
p2322
I2400
sS'maps'
p2323
I886
sS'transfers'
p2324
I753
sS'sub-servient'
p2325
I2404
sS'msb=msb'
p2326
I1353
sS'reject'
p2327
I2406
sS'interrogator'
p2328
I2407
sS'ensemble'
p2329
I2409
sS'css'
p2330
I2410
sS'orbital'
p2331
I4042
sS'plant'
p2332
I2411
sS'fs'
p2333
I2412
sS'ft'
p2334
I2413
sS'intended'
p2335
I1405
sS'communicating'
p2336
I2415
sS'derived'
p2337
I2417
sS'treatments'
p2338
I2418
sS'inflammable'
p2339
I1889
sS'tries'
p2340
I1451
sS'disable'
p2341
I1454
sS'welds'
p2342
I2425
sS'electromotive'
p2343
I2426
sS'develop'
p2344
I1832
sS'evaluations'
p2345
I1621
sS'unacceptable'
p2346
I3854
sS'response'
p2347
I2429
sS'a'
I2431
sS'workstation'
p2348
I2432
sS'short'
p2349
I2433
sS'footer'
p2350
I2434
sS'laminate'
p2351
I2435
sS'documentation'
p2352
I2436
sS'exhibited'
p2353
I2572
sS')'
I4043
sS'tsat'
p2354
I2440
sS'lasting'
p2355
I4060
sS'granted'
p2356
I1833
sS'turnover'
p2357
I2443
sS'traceability'
p2358
I2445
sS'help'
p2359
I2446
sS"don't"
p2360
I2447
sS'developed'
p2361
I1631
sS'mission'
p2362
I2449
sS'installed'
p2363
I3091
sS'radiators'
p2364
I600
sS'radar'
p2365
I1652
sS'attitude'
p2366
I1655
sS'dough'
p2367
I248
sS'filters'
p2368
I2455
sS'documents'
p2369
I3760
sS'5.2.4.2.1'
p2370
I2456
sS'kinetic'
p2371
I2457
sS'5.2.4.2.3'
p2372
I2458
sS'avenue'
p2373
I2459
sS'its'
p2374
I2460
sS'environmentally'
p2375
I2461
sS'developer'
p2376
I2462
sS'20'
p2377
I2464
sS'actually'
p2378
I2466
sS'late'
p2379
I2467
sS'frame'
p2380
I3885
sS'detected'
p2381
I1768
sS'disclosed'
p2382
I1776
sS'bypass'
p2383
I1780
sS'pcb'
p2384
I2472
sS'clothed'
p2385
I2473
sS'might'
p2386
I2474
sS'good'
p2387
I2197
sS'return'
p2388
I1825
sS'cea'
p2389
I2477
sS'unrolled'
p2390
I2478
sS'robustness'
p2391
I2069
sS'slight'
p2392
I4204
sS'assemblies'
p2393
I3792
sS'abrasion'
p2394
I1863
sS'motivates'
p2395
I2480
sS'sulphate'
p2396
I2481
sS'suffice'
p2397
I2482
sS'separately'
p2398
I3049
sS'non-compliant'
p2399
I2483
sS'association'
p2400
I2484
sS'restrict'
p2401
I2206
sS'gets'
p2402
I4052
sS'designation'
p2403
I2487
sS'always'
p2404
I1948
sS'decimal'
p2405
I147
sS'intervene'
p2406
I2491
sS'labeling'
p2407
I2492
sS'capability'
p2408
I2493
sS'micro'
p2409
I1760
sS'token'
p2410
I2495
sS'stopped'
p2411
I2496
sS'ttot'
p2412
I2497
sS'radial'
p2413
I2498
sS'accommodated'
p2414
I1991
sS'repeating'
p2415
I2500
sS'ceap'
p2416
I2501
sS'characterized'
p2417
I2502
sS'referred'
p2418
I2503
sS'clamp'
p2419
I2015
sS'status'
p2420
I1847
sS'storage'
p2421
I4100
sS'permeation'
p2422
I2507
sS'detect'
p2423
I2508
sS'weight'
p2424
I2032
sS'generation'
p2425
I2510
sS'polyimide'
p2426
I623
sS'energy'
p2427
I2512
sS'hard'
p2428
I2513
sS'reduce'
p2429
I2053
sS'extended'
p2430
I876
sS'expect'
p2431
I2516
sS'undertake'
p2432
I2517
sS'measurement'
p2433
I2518
sS'infinity'
p2434
I4057
sS'portland'
p2435
I2100
sS'synchronised'
p2436
I2106
sS'event'
p2437
I2522
sS'standard'
p2438
I2288
sS'leave'
p2439
I2524
sS'funding'
p2440
I2525
sS'p'
I2526
sS'since'
p2441
I2527
sS'induces'
p2442
I2528
sS'projected'
p2443
I2529
sS'research'
p2444
I2530
sS'nwkmaxbroadcastretries'
p2445
I2531
sS'participants'
p2446
I2532
sS'health'
p2447
I1138
sS'anti\xe2\x80\x90creep'
p2448
I2534
sS'7'
I2208
sS'print'
p2449
I2536
sS'induced'
p2450
I2537
sS'evaluation'
p2451
I2228
sS'occurs'
p2452
I2539
sS'fiber'
p2453
I2540
sS'solvent'
p2454
I2541
sS'inert'
p2455
I2542
sS'housed'
p2456
I2543
sS'houses'
p2457
I2545
sS'reason'
p2458
I2546
sS'base'
p2459
I2547
sS'conditioning'
p2460
I2548
sS'disposition'
p2461
I2549
sS'equipped'
p2462
I2550
sS'rises'
p2463
I2324
sS'beginning'
p2464
I2552
sS'generate'
p2465
I2553
sS'definition'
p2466
I2554
sS'unique'
p2467
I817
sS'retained'
p2468
I2556
sS'liquid-locking'
p2469
I2593
sS'\xce\xbcf'
p2470
I60
sS'caused'
p2471
I2558
sS'persists'
p2472
I2561
sS'success'
p2473
I4154
sS'propellant'
p2474
I2563
sS'left-facing'
p2475
I2564
sS'conducted'
p2476
I2565
sS'exponentially'
p2477
I2566
sS'circuit'
p2478
I2233
sS'customisations'
p2479
I2568
sS'thermo-mechanical'
p2480
I2569
sS'configurations'
p2481
I3325
sS'assign'
p2482
I2437
sS'a325'
p2483
I4161
sS'feed'
p2484
I2573
sS'copper'
p2485
I2574
sS'major'
p2486
I2575
sS'probability'
p2487
I2576
sS'prevent'
p2488
I2577
sS'netted'
p2489
I2578
sS'pestle'
p2490
I4067
sS'number'
p2491
I2580
sS'linking'
p2492
I2581
sS'utilized'
p2493
I2582
sS'dilute'
p2494
I3328
sS'inhibits'
p2495
I1133
sS'notify'
p2496
I2585
sS'blank'
p2497
I2586
sS'anonymity'
p2498
I2587
sS'fluxes'
p2499
I2588
sS'several'
p2500
I759
sS'passes'
p2501
I2589
sS'differ'
p2502
I2590
sS'"'
I2591
sS'temperature'
p2503
I2592
sS'jet'
p2504
I2557
sS'introduction'
p2505
I2594
sS'leading'
p2506
I2595
sS'interviews'
p2507
I2596
sS'amsc'
p2508
I2597
sS'least'
p2509
I2598
sS'paint'
p2510
I2600
sS'station'
p2511
I2601
sS'straylight'
p2512
I2602
sS'expand'
p2513
I4071
sS'calculations'
p2514
I119
sS'non-essential'
p2515
I2605
sS'terminals'
p2516
I2606
sS'ballistic'
p2517
I957
sS'scheme'
p2518
I1393
sS'recovered'
p2519
I2609
sS'too'
p2520
I2610
sS'implements'
p2521
I3217
sS'elaboration'
p2522
I2612
sS'passed'
p2523
I2203
sS'relationship'
p2524
I2614
sS'pump'
p2525
I2615
sS'checklist'
p2526
I2617
sS'interviewee'
p2527
I2618
sS'immediate'
p2528
I2619
sS'tracking'
p2529
I2312
sS'signaling'
p2530
I2621
sS'consult'
p2531
I2622
sS'off'
p2532
I4073
sS'interviewer'
p2533
I2624
sS'undefined'
p2534
I2625
sS'hundred'
p2535
I2608
sS'determines'
p2536
I2627
sS'functionalities'
p2537
I4075
sS'\xe2\x89\xa4'
p2538
I2628
sS'acknowledgement'
p2539
I2629
sS'grey'
p2540
I2630
sS'recording'
p2541
I2631
sS'determined'
p2542
I2632
sS'store'
p2543
I2633
sS'stale'
p2544
I2635
sS'treated'
p2545
I2636
sS'declare'
p2546
I2637
sS'priority'
p2547
I3701
sS'takes'
p2548
I2326
sS'vanes'
p2549
I2639
sS'organisations'
p2550
I2640
sS'0x12'
p2551
I4081
sS'electrochemical'
p2552
I2641
sS'ofcs'
p2553
I3033
sS'cognizant'
p2554
I2643
sS'cleaned'
p2555
I2644
sS'controlled'
p2556
I3994
sS'black-anodized'
p2557
I2645
sS'orders'
p2558
I2647
sS'option'
p2559
I2613
sS'lid'
p2560
I2648
sS'paths'
p2561
I2649
sS'cell-level'
p2562
I4130
sS'ksps'
p2563
I3420
sS'built'
p2564
I2651
sS'odd'
p2565
I3337
sS'self'
p2566
I2653
sS'click'
p2567
I3338
sS'also'
p2568
I2655
sS'empirically'
p2569
I2656
sS'internal'
p2570
I2657
sS'reed\xe2\x80\x90'
p2571
I2658
sS'aphelion'
p2572
I2174
sS'aliasing'
p2573
I2660
sS'surveyed'
p2574
I3433
sS'towards'
p2575
I863
sS'electric'
p2576
I2663
sS'64'
p2577
I2664
sS'index'
p2578
I3340
sS"user's"
p2579
I2665
sS'bd_addr'
p2580
I329
sS'reach'
p2581
I2667
sS'gops'
p2582
I2668
sS'exempted'
p2583
I2669
sS'unused'
p2584
I2670
sS'most'
p2585
I2671
sS'hired'
p2586
I2672
sS'plan'
p2587
I2673
sS'significant'
p2588
I2674
sS'70'
p2589
I2675
sS'nothing'
p2590
I2006
sS'accepting'
p2591
I2677
sS'measured'
p2592
I2678
sS'approved'
p2593
I2679
sS'appear'
p2594
I2680
sS'deviations'
p2595
I2681
sS'constructed'
p2596
I2403
sS'mobile'
p2597
I2683
sS'arising'
p2598
I4091
sS'clear'
p2599
I417
sS'cover'
p2600
I2686
sS'drawing'
p2601
I4092
sS'traditional'
p2602
I2687
sS'hints'
p2603
I2688
sS'part'
p2604
I2620
sS'electrons'
p2605
I2690
sS'reflections'
p2606
I2691
sS'clean'
p2607
I2692
sS'weigh'
p2608
I2693
sS'baseband'
p2609
I2184
sS'wording'
p2610
I2694
sS'cleaning'
p2611
I3158
sS'wireframe'
p2612
I3346
sS'particularly'
p2613
I2697
sS'cdc'
p2614
I2698
sS'cdn'
p2615
I2699
sS'affix'
p2616
I2700
sS'hopper'
p2617
I2701
sS'degrades'
p2618
I2702
sS'session'
p2619
I2704
sS'relation'
p2620
I2705
sS'cdr'
p2621
I2706
sS'acceptability'
p2622
I2707
sS'carefully'
p2623
I2708
sS'excessive'
p2624
I4098
sS'degraded'
p2625
I2710
sS'microsoft\xe2\x80\x99s'
p2626
I2711
sS'fine'
p2627
I2712
sS'find'
p2628
I2713
sS'emulsion'
p2629
I2714
sS'completion'
p2630
I2715
sS'polyethylene'
p2631
I3165
sS'regulations'
p2632
I3234
sS'simulating'
p2633
I2717
sS'parameters'
p2634
I2718
sS'4.2.4.3'
p2635
I2719
sS'less'
p2636
I4099
sS'distributed'
p2637
I2720
sS'axial'
p2638
I1137
sS'failed'
p2639
I2723
sS'ecss'
p2640
I2724
sS'convoluted'
p2641
I2725
sS'factor'
p2642
I2726
sS'override'
p2643
I2727
sS'8'
I2728
sS'circle'
p2644
I2729
sS'accurate'
p2645
I4101
sS'about'
p2646
I4220
sS'filtration'
p2647
I1512
sS'dominant'
p2648
I2732
sS'cots'
p2649
I2733
sS'notation'
p2650
I2734
sS'permission'
p2651
I923
sS'dependent'
p2652
I2736
sS'beams'
p2653
I2737
sS'connections'
p2654
I1679
sS'modules'
p2655
I2738
sS'trees'
p2656
I2739
sS'obtain'
p2657
I4102
sS'water-soluble'
p2658
I2007
sS'rest'
p2659
I2742
sS'combinations'
p2660
I2743
sS'during'
p2661
I2744
sS'crs'
p2662
I2746
sS'progressive'
p2663
I2747
sS'worst-case'
p2664
I2748
sS'generally'
p2665
I2749
sS'bytes'
p2666
I2750
sS'remove'
p2667
I2751
sS'full\xe2\x80\x90scale'
p2668
I3753
sS'clocks'
p2669
I2753
sS'common'
p2670
I2754
sS'activity'
p2671
I1826
sS'dtgs'
p2672
I2757
sS'keyseqnumber'
p2673
I2758
sS'crm'
p2674
I2759
sS'seu'
p2675
I2760
sS'set'
p2676
I2761
sS'equinox'
p2677
I2762
sS'unicode'
p2678
I2763
sS'achieved'
p2679
I2764
sS'excavation'
p2680
I2765
sS'enabled'
p2681
I2766
sS'selecting'
p2682
I4205
sS'startup'
p2683
I3709
sS'deactivation'
p2684
I2768
sS'lot'
p2685
I3707
sS'see'
p2686
I2769
sS'individual'
p2687
I2770
sS'migration'
p2688
I1896
sS'sea'
p2689
I2772
sS'tender'
p2690
I2773
sS'unsupported'
p2691
I2509
sS'refuse'
p2692
I2775
sS'sel'
p2693
I1989
sS'arm'
p2694
I2777
sS'2.5'
p2695
I2778
sS'repairs'
p2696
I340
sS'carried-out'
p2697
I2780
sS'bibliographic'
p2698
I2782
sS'expert'
p2699
I2783
sS'deactivate'
p2700
I2784
sS'user'
p2701
I2963
sS'currently'
p2702
I2785
sS'please'
p2703
I2786
sS'soldering-'
p2704
I2788
sS'respectively'
p2705
I3363
sS'probably'
p2706
I2790
sS'avoidance'
p2707
I2791
sS'conditions'
p2708
I2792
sS'r-sys-300'
p2709
I2793
sS'knowing'
p2710
I951
sS'latin'
p2711
I2795
sS'recently'
p2712
I2796
sS'responses'
p2713
I2797
sS'complementary'
p2714
I2799
sS'l2cap_connectrsp'
p2715
I1192
sS'sidelobe'
p2716
I2801
sS'interfaces'
p2717
I2802
sS'attention'
p2718
I2634
sS'compatibility'
p2719
I3700
sS'synchronizing'
p2720
I2804
sS'e=8'
p2721
I3366
sS'incident'
p2722
I1208
sS'succeed'
p2723
I2807
sS'mentoring'
p2724
I2808
sS'shaped'
p2725
I2809
sS'interface'
p2726
I2810
sS'electrical'
p2727
I3216
sS'remaining'
p2728
I3024
sS'bronze'
p2729
I2811
sS'assumptions'
p2730
I3481
sS'both'
p2731
I2812
sS'c'
I2813
sS'cubes'
p2732
I2814
sS'last'
p2733
I2815
sS'grounded'
p2734
I1900
sS'pdu'
p2735
I2817
sS'non-overlapping'
p2736
I2818
sS'pdr'
p2737
I2819
sS'hilo'
p2738
I2535
sS'sensitive'
p2739
I2820
sS'connection'
p2740
I2821
sS'configurable'
p2741
I2822
sS'trunking'
p2742
I2823
sS'1.60'
p2743
I2824
sS'long-term'
p2744
I2825
sS'pde'
p2745
I2826
sS'mean'
p2746
I2827
sS'whole'
p2747
I2828
sS'finds'
p2748
I2829
sS'experimental'
p2749
I4086
sS'load'
p2750
I2832
sS'customer-specified'
p2751
I2833
sS'reconsidered'
p2752
I2834
sS'supply'
p2753
I2835
sS'simple'
p2754
I1305
sS'logged'
p2755
I4119
sS'rad'
p2756
I2838
sS'proton'
p2757
I2839
sS'0,8'
p2758
I1821
sS'cross-sectional'
p2759
I2841
sS'adjoining'
p2760
I2842
sS'shutdown'
p2761
I4172
sS'unsuccessful'
p2762
I2844
sS'vessel'
p2763
I2845
sS'steels'
p2764
I2846
sS'complied'
p2765
I4027
sS'factors'
p2766
I4353
sS'along'
p2767
I2848
sS'belt'
p2768
I2849
sS'finally'
p2769
I2331
sS'described'
p2770
I2851
sS'raise'
p2771
I2852
sS'all'
p2772
I2167
sS'create'
p2773
I2855
sS'acceptance'
p2774
I2856
sS'dcid'
p2775
I2857
sS'due'
p2776
I2858
sS'strategy'
p2777
I2859
sS'continuationstate'
p2778
I2861
sS'reduction'
p2779
I2862
sS'practicable'
p2780
I2781
sS'initiation'
p2781
I2864
sS'ensured'
p2782
I2865
sS'pd'
p2783
I1715
sS'collected'
p2784
I2867
sS'tobts'
p2785
I2868
sS'brick'
p2786
I2869
sS'dut'
p2787
I449
sS'attractive'
p2788
I3013
sS'firm'
p2789
I2872
sS'1.0'
p2790
I3742
sS'generating'
p2791
I2873
sS'flight'
p2792
I2874
sS'success-'
p2793
I2875
sS'fire'
p2794
I2876
sS'proprietary'
p2795
I3471
sS'transferring'
p2796
I2877
sS'gas'
p2797
I2878
sS'precision'
p2798
I2879
sS'modelling'
p2799
I2880
sS'gap'
p2800
I2881
sS'accommodate'
p2801
I2882
sS'nrz'
p2802
I2883
sS'sleeves'
p2803
I2884
sS'representative'
p2804
I2885
sS'misbehaving'
p2805
I2
sS'demand'
p2806
I2887
sS'prices'
p2807
I2888
sS'presented'
p2808
I2889
sS'rupture'
p2809
I2890
sS'hardness'
p2810
I2891
sS'presses'
p2811
I2892
sS'handling'
p2812
I2893
sS'look'
p2813
I2894
sS'p5'
p2814
I2895
sS'avalanches'
p2815
I43
sS'straight'
p2816
I2897
sS'tip'
p2817
I2898
sS'budget'
p2818
I59
sS'evaluated'
p2819
I2900
sS"server's"
p2820
I2940
sS'receive'
p2821
I3384
sS'while'
p2822
I2903
sS'replaced'
p2823
I2904
sS'4.3.2.1d'
p2824
I1915
sS'evaluating'
p2825
I2906
sS'error'
p2826
I2907
sS'0.5\xc2\xb0'
p2827
I2908
sS'evaluates'
p2828
I2909
sS'ful'
p2829
I2910
sS'overrides'
p2830
I1164
sS'loop'
p2831
I2912
sS'welding'
p2832
I2913
sS'computed'
p2833
I3882
sS'concurrently'
p2834
I2914
sS'larger'
p2835
I3386
sS'unit\xe2\x80\x99s'
p2836
I2916
sS'showers'
p2837
I2917
sS'backing'
p2838
I2918
sS'averaging'
p2839
I2919
sS'router'
p2840
I2920
sS'retesting'
p2841
I2921
sS'herein'
p2842
I2922
sS'encountered'
p2843
I2923
sS'cec'
p2844
I2476
sS'itself'
p2845
I2924
sS'ready'
p2846
I2925
sS'aspects'
p2847
I2926
sS'nonmemberradius'
p2848
I2927
sS'currents'
p2849
I2928
sS'increased'
p2850
I4135
sS'queue'
p2851
I2931
sS'departures/hour'
p2852
I2932
sS'authenticated'
p2853
I2933
sS'baseline'
p2854
I252
sS'shorted'
p2855
I2935
sS'lengths'
p2856
I2936
sS'shorter'
p2857
I2938
sS'read'
p2858
I2939
sS'p=1'
p2859
I1125
sS'deletion'
p2860
I306
sS'9'
I2050
sS'resulting'
p2861
I3391
sS'advise'
p2862
I320
sS'conflict'
p2863
I2947
sS'higher'
p2864
I2948
sS'magnetometer'
p2865
I339
sS'anti-wicking'
p2866
I2950
sS'passwords'
p2867
I348
sS'temporary'
p2868
I2953
sS'optic'
p2869
I2954
sS'le-frame'
p2870
I2955
sS'keys'
p2871
I2956
sS'msfc-std-969'
p2872
I2957
sS'cement'
p2873
I2958
sS'alert'
p2874
I2959
sS'viewing'
p2875
I2960
sS'levels'
p2876
I2961
sS'uses'
p2877
I404
sS'purpose'
p2878
I407
sS'resonance'
p2879
I1171
sS'aggregate'
p2880
I2965
sS'plugs'
p2881
I2966
sS'amf'
p2882
I2967
sS'stack'
p2883
I435
sS'recent'
p2884
I2970
sS'lower'
p2885
I2971
sS'task'
p2886
I2972
sS'supersede'
p2887
I2973
sS'older'
p2888
I462
sS'retention'
p2889
I2975
sS'studies'
p2890
I2976
sS'tasc'
p2891
I2977
sS'docked'
p2892
I2978
sS'analysis'
p2893
I2979
sS'jsc\xe2\x80\x93es'
p2894
I2980
sS'deliverable'
p2895
I2981
sS'concrete'
p2896
I2982
sS'u+0039'
p2897
I2983
sS'gse'
p2898
I2984
sS'calibration'
p2899
I4325
sS'consistency'
p2900
I2985
sS'clears'
p2901
I2986
sS'organization'
p2902
I513
sS'zero-touch'
p2903
I2988
sS'u+0030'
p2904
I520
sS'cryogenic'
p2905
I528
sS'positioned'
p2906
I2991
sS'bearer'
p2907
I2992
sS'precedence'
p2908
I2993
sS'radiant-energy'
p2909
I2994
sS'settlements'
p2910
I2995
sS'reviewed'
p2911
I2996
sS'distracting'
p2912
I2997
sS'shape'
p2913
I2998
sS'intervals'
p2914
I598
sS'fall-back'
p2915
I3000
sS'pyrotechnic'
p2916
I3001
sS'questions'
p2917
I3002
sS'amp'
p2918
I3003
sS'alternative'
p2919
I3004
sS'metallic'
p2920
I3005
sS'alignment'
p2921
I3007
sS'cut'
p2922
I642
sS'colder'
p2923
I3009
sS'cskip'
p2924
I3010
sS'alternate'
p2925
I671
sS'initialize'
p2926
I103
sS'recommended'
p2927
I499
sS'exclusively'
p2928
I3014
sS'contractor'
p2929
I3015
sS'signals'
p2930
I3016
sS'source'
p2931
I3017
sS'hyperlinks'
p2932
I3018
sS'location'
p2933
I3019
sS'relevance'
p2934
I3020
sS'input'
p2935
I3021
sS'violations'
p2936
I3022
sS'guarantees'
p2937
I3023
sS'reverted'
p2938
I719
sS'build'
p2939
I3025
sS'customers'
p2940
I3026
sS'element/modules'
p2941
I3556
sS'304l'
p2942
I3027
sS'emergency'
p2943
I3028
sS'format'
p2944
I3029
sS'evaluate'
p2945
I3030
sS'showing'
p2946
I760
sS'results'
p2947
I3270
sS'indexed'
p2948
I1698
sS'game'
p2949
I3034
sS'varies'
p2950
I3560
sS'marked'
p2951
I3035
sS'integer'
p2952
I812
sS'per-print'
p2953
I1957
sS'sms'
p2954
I2171
sS'formal'
p2955
I3040
sS'modifications'
p2956
I3042
sS'pertinent'
p2957
I845
sS'd'
I3044
sS'submission'
p2958
I3045
sS'vma1'
p2959
I1506
sS'follows'
p2960
I3047
sS'-35'
p2961
I862
sS'holes'
p2962
I3250
sS'ignore'
p2963
I2408
sS'communications'
p2964
I3050
sS'individuals'
p2965
I890
sS'yields'
p2966
I891
sS'job/workflow'
p2967
I3053
sS'translated'
p2968
I3054
sS'accelerations'
p2969
I3055
sS'essential'
p2970
I3056
sS'terminology'
p2971
I920
sS'mathematical'
p2972
I3058
sS'sketch'
p2973
I936
sS'google'
p2974
I3060
sS'often'
p2975
I943
sS'discrete'
p2976
I3062
sS'spring'
p2977
I3063
sS'creation'
p2978
I3064
sS'some'
p2979
I3065
sS'back'
p2980
I3066
sS'streaming'
p2981
I1701
sS'added'
p2982
I2662
sS'3.2'
p2983
I3069
sS'3.1'
p2984
I3070
sS'oscillations'
p2985
I3071
sS'loses'
p2986
I4156
sS'system\xe2\x80\x99s'
p2987
I3072
sS'delivered'
p2988
I1030
sS'vacates'
p2989
I3074
sS'or/and'
p2990
I1036
sS'flux'
p2991
I3076
sS'resolution'
p2992
I4352
sS'triglycine'
p2993
I3077
sS'contacts'
p2994
I3078
sS'resonances'
p2995
I869
sS'decision'
p2996
I3080
sS'though'
p2997
I1662
sS'integration'
p2998
I3082
sS'per'
p2999
I3083
sS'15189'
p3000
I1069
sS'fowler\xe2\x80\x90nordheim'
p3001
I3085
sS'connecting'
p3002
I3086
sS'eliminate'
p3003
I3087
sS'close\xe2\x80\x90out'
p3004
I3088
sS'harness'
p3005
I2024
sS'mhz'
p3006
I4159
sS'fragments'
p3007
I3089
sS'straightforward'
p3008
I3090
sS'minimal'
p3009
I3092
sS'be'
p3010
I3094
sS'measures'
p3011
I3095
sS'patient'
p3012
I1130
sS'epoxy'
p3013
I4160
sS'300'
p3014
I3097
sS'jumps'
p3015
I3098
sS'record\xe2\x80\x99s'
p3016
I1148
sS'continuing'
p3017
I3100
sS'confidence'
p3018
I2544
sS'refused'
p3019
I3102
sS'step'
p3020
I3103
sS'served'
p3021
I3104
sS'refuses'
p3022
I3105
sS'plots'
p3023
I3106
sS'article'
p3024
I3107
sS'dictated'
p3025
I1390
sS'by'
p3026
I3109
sS'crowds'
p3027
I4011
sS'human-rated'
p3028
I1207
sS'pipeline'
p3029
I3111
sS'consumption'
p3030
I3424
sS'constraint'
p3031
I3113
sS'tracing'
p3032
I3114
sS'firing'
p3033
I3115
sS'on-orbit'
p3034
I3116
sS'simulation'
p3035
I3117
sS'retightening'
p3036
I1426
sS'idl'
p3037
I1265
sS'microsecond'
p3038
I3120
sS'dialog'
p3039
I3121
sS'bootstrapping'
p3040
I4076
sS'consequently'
p3041
I3122
sS'drb\xe2\x80\x99s'
p3042
I3123
sS'block'
p3043
I1312
sS'credible'
p3044
I3125
sS'repair'
p3045
I3126
sS'mechanics'
p3046
I4305
sS'misbehavior'
p3047
I3128
sS'unnoticed'
p3048
I3129
sS'into'
p3049
I3130
sS'within'
p3050
I3131
sS'exceed'
p3051
I4170
sS'servers'
p3052
I2242
sS'services'
p3053
I2676
sS'appropriate'
p3054
I3135
sS'master'
p3055
I3136
sS'frames'
p3056
I3137
sS'proportional'
p3057
I3138
sS'next'
p3058
I3428
sS'runways'
p3059
I3140
sS'menus'
p3060
I2402
sS'risk'
p3061
I3141
sS'regulators'
p3062
I4021
sS'statistics'
p3063
I3143
sS'hypothetically'
p3064
I3429
sS'placing'
p3065
I3146
sS'question'
p3066
I3147
sS'submit'
p3067
I555
sS'custom'
p3068
I1476
sS'capacitance'
p3069
I3150
sS'component-level'
p3070
I3151
sS'handbook'
p3071
I3152
sS'eclss'
p3072
I189
sS'certification'
p3073
I1605
sS':'
I3155
sS'sections'
p3074
I3156
sS'disallowed'
p3075
I1532
sS'manufacture'
p3076
I441
sS'le-frames'
p3077
I3159
sS'sdp'
p3078
I3160
sS'inches'
p3079
I3161
sS'brazing'
p3080
I4174
sS'adjusting'
p3081
I3163
sS'memory'
p3082
I3164
sS'initiator'
p3083
I1913
sS'pseudo\xe2\x80\x90randomizer'
p3084
I3166
sS'properly'
p3085
I3167
sS'reed'
p3086
I1600
sS'segregation'
p3087
I3169
sS'kg'
p3088
I2682
sS'injection'
p3089
I1616
sS'considerable'
p3090
I1627
sS'\xe2\x80\x98'
p3091
I4297
sS'codeblock'
p3092
I3173
sS'balancing'
p3093
I3174
sS'submitted'
p3094
I3729
sS'rejection'
p3095
I3175
sS'0x000000000000'
p3096
I1651
sS'cid'
p3097
I1653
sS'circuits'
p3098
I3178
sS'uv'
p3099
I1672
sS'up'
p3100
I3180
sS'us'
p3101
I3181
sS'um'
p3102
I3182
sS'windows'
p3103
I3183
sS'inhibiting'
p3104
I3299
sS'verification'
p3105
I3184
sS'uk'
p3106
I3185
sS'fdir'
p3107
I3186
sS'continuously'
p3108
I3187
sS'locally'
p3109
I2016
sS'autonomous'
p3110
I1723
sS'similar'
p3111
I309
sS'medical'
p3112
I1547
sS'zho'
p3113
I3191
sS'24kw'
p3114
I3734
sS'partition'
p3115
I3192
sS'constant'
p3116
I1756
sS'corrective'
p3117
I3194
sS'introducing'
p3118
I3195
sS'defined'
p3119
I3196
sS'stripped'
p3120
I1772
sS'influence'
p3121
I3199
sS'accessibility'
p3122
I3200
sS'metals'
p3123
I3201
sS'coordinator'
p3124
I894
sS'engineering'
p3125
I1805
sS'warning'
p3126
I3204
sS'low-alloy'
p3127
I2560
sS'6-digit'
p3128
I3205
sS'stripper'
p3129
I3206
sS'codes'
p3130
I3207
sS'%'
I3208
sS'6.2c'
p3131
I3209
sS'objection'
p3132
I3210
sS'fixing'
p3133
I3211
sS'malicious'
p3134
I3212
sS'invalid'
p3135
I3213
sS'nas'
p3136
I1901
sS'points'
p3137
I1714
sS'functionality'
p3138
I1914
sS'3.27'
p3139
I3218
sS'dimensioning'
p3140
I3219
sS'decremented'
p3141
I3220
sS'acceptable'
p3142
I3221
sS'particular'
p3143
I2355
sS'padding'
p3144
I3223
sS'flammability'
p3145
I3224
sS"aircraft's"
p3146
I3225
sS'elements'
p3147
I3226
sS're-mate'
p3148
I1960
sS'generates'
p3149
I1963
sS'gross'
p3150
I3229
sS'eumetcast'
p3151
I3440
sS'aggregates'
p3152
I3231
sS'purged'
p3153
I3252
sS'problems'
p3154
I3232
sS'core2core'
p3155
I3441
sS'replace'
p3156
I2421
sS'generated'
p3157
I2003
sS'allowing'
p3158
I3236
sS'suppression'
p3159
I3237
sS'velocity'
p3160
I3238
sS'metal'
p3161
I3239
sS'structure'
p3162
I3240
sS'input_bandwidth'
p3163
I3127
sS'rejects'
p3164
I3242
sS'tailored'
p3165
I2054
sS'correlated'
p3166
I2058
sS'e'
I3245
sS'algorithm'
p3167
I3246
sS'established'
p3168
I2942
sS'nonconformance'
p3169
I3248
sS'tribological'
p3170
I2080
sS'reconditioning'
p3171
I328
sS'orbit'
p3172
I3251
sS'responded'
p3173
I2277
sS'depth'
p3174
I3253
sS'carrying'
p3175
I3443
sS'weights'
p3176
I3255
sS'far'
p3177
I2211
sS'failures'
p3178
I2138
sS'joining'
p3179
I3259
sS'subclause'
p3180
I2149
sS'enrichment'
p3181
I2154
sS'initiating'
p3182
I3262
sS'once'
p3183
I3263
sS'code'
p3184
I3264
sS'gs'
p3185
I3265
sS'wire'
p3186
I3898
sS'priori'
p3187
I3215
sS'melts'
p3188
I3267
sS'issued'
p3189
I3268
sS'amplifier'
p3190
I3269
sS'resistance'
p3191
I1785
sS'existing'
p3192
I3271
sS'maastricht'
p3193
I3272
sS'luxembourg'
p3194
I1971
sS'screen'
p3195
I1713
sS'adjustment'
p3196
I3276
sS'ammonia'
p3197
I3277
sS'issues'
p3198
I3278
sS'gases'
p3199
I3279
sS'breached'
p3200
I3280
sS'lubricants'
p3201
I3281
sS'concerned'
p3202
I3282
sS'peering'
p3203
I1716
sS'send'
p3204
I3284
sS're-establishing'
p3205
I983
sS'citing'
p3206
I3286
sS'corrosive'
p3207
I1973
sS'web-grape'
p3208
I3288
sS'stable'
p3209
I3289
sS'exit'
p3210
I3290
sS'differing'
p3211
I3291
sS'include'
p3212
I2360
sS'gb'
p3213
I3293
sS'waiting'
p3214
I3350
sS'sent'
p3215
I2369
sS'honor'
p3216
I3398
sS'customer'
p3217
I3451
sS'confirmation'
p3218
I1151
sS'high\xe2\x80\x90voltage'
p3219
I3296
sS'listed'
p3220
I3297
sS'octets'
p3221
I2424
sS'sar'
p3222
I1549
sS'chooses'
p3223
I3300
sS'anywhere'
p3224
I3461
sS'mixing'
p3225
I3302
sS'valves'
p3226
I3303
sS'wipe'
p3227
I3304
sS'categories'
p3228
I3305
sS'entire'
p3229
I3306
sS'exits'
p3230
I3307
sS'waveforms'
p3231
I3308
sS'transmission'
p3232
I3309
sS'eva'
p3233
I3310
sS'button'
p3234
I3311
sS'shock'
p3235
I3312
sS'colors'
p3236
I3313
sS'fewer'
p3237
I3314
sS'32,3'
p3238
I3315
sS'threat'
p3239
I3316
sS'skipped'
p3240
I3317
sS'3x3'
p3241
I3318
sS'demonstrated'
p3242
I4200
sS'grommets'
p3243
I3320
sS'car'
p3244
I3321
sS'6.2.1a'
p3245
I3322
sS'inspection'
p3246
I3323
sS'rack'
p3247
I3324
sS'2.25'
p3248
I2570
sS'limitations'
p3249
I4201
sS'smaller'
p3250
I2583
sS'e\xe2\x80\x906'
p3251
I3108
sS'telecommand'
p3252
I3329
sS'replicates'
p3253
I3330
sS'jump'
p3254
I3331
sS'video'
p3255
I3332
sS'enclosed'
p3256
I3333
sS'go'
p3257
I3274
sS'neutral'
p3258
I4273
sS'download'
p3259
I3335
sS'acid'
p3260
I2650
sS'cfr'
p3261
I2652
sS'leakage'
p3262
I2654
sS'buckling'
p3263
I3339
sS'purge'
p3264
I3093
sS'turn'
p3265
I3341
sS'unavailable'
p3266
I3342
sS'rate'
p3267
I2250
sS'donut'
p3268
I3459
sS'4.2.10.2c'
p3269
I3344
sS'pipes'
p3270
I3345
sS'intermodulation'
p3271
I2696
sS'geo-referencing'
p3272
I3347
sS'expressed'
p3273
I3348
sS'cell'
p3274
I2716
sS'evoked'
p3275
I2721
sS'500'
p3276
I3351
sS'vehicle'
p3277
I3431
sS'flowing'
p3278
I3352
sS'incidents'
p3279
I3353
sS';'
I3354
sS'std-2052'
p3280
I3355
sS'interleaving'
p3281
I3356
sS'exercise'
p3282
I3357
sS'body'
p3283
I3358
sS'impact'
p3284
I3359
sS'justification'
p3285
I3360
sS'hdmi'
p3286
I969
sS'exchange'
p3287
I3362
sS'actuation'
p3288
I2789
sS'commercial'
p3289
I2405
sS'cryopreservation'
p3290
I2805
sS'delivering'
p3291
I3367
sS'desired'
p3292
I3368
sS'24-bit'
p3293
I2599
sS'objects'
p3294
I3370
sS'let'
p3295
I3371
sS'sink'
p3296
I2831
sS'separation'
p3297
I3373
sS'others'
p3298
I3374
sS'layout'
p3299
I3375
sS'feasible'
p3300
I3241
sS'tdd'
p3301
I1987
sS'extreme'
p3302
I3377
sS'settling'
p3303
I3378
sS'dsos'
p3304
I3379
sS'convert'
p3305
I3380
sS'38'
p3306
I3381
sS'securing'
p3307
I3382
sS'software-specific'
p3308
I3383
sS'technical'
p3309
I2902
sS'involved'
p3310
I3385
sS'30'
p3311
I2915
sS'metre'
p3312
I3387
sS'steady\xe2\x80\x90state'
p3313
I3388
sS'contradiction'
p3314
I3389
sS'engine'
p3315
I3390
sS'persons'
p3316
I2559
sS'products'
p3317
I2945
sS'sub-parameter'
p3318
I3392
sS'eui64'
p3319
I3393
sS'contaminants'
p3320
I3394
sS'implement'
p3321
I3395
sS'proof'
p3322
I3396
sS'makes'
p3323
I3397
sS'delays'
p3324
I2121
sS'non-discoverable'
p3325
I3399
sS'composed'
p3326
I3400
sS'up-to-date'
p3327
I3401
sS'formulated'
p3328
I3402
sS'addresses'
p3329
I3403
sS'airspace'
p3330
I3404
sS'claim'
p3331
I3405
sS'duct'
p3332
I3406
sS'aps'
p3333
I3407
sS'app'
p3334
I3408
sS'manage'
p3335
I3409
sS'dedicated'
p3336
I3410
sS'private'
p3337
I3411
sS'addressed'
p3338
I3412
sS'decrease'
p3339
I3413
sS'names'
p3340
I3414
sS'redo'
p3341
I3418
sS'apply'
p3342
I3416
sS'mcgoohan'
p3343
I3417
sS'tools'
p3344
I3079
sS'gateway'
p3345
I3419
sS'relaying'
p3346
I1781
sS'additionalprotocoldescriptorlists'
p3347
I1706
sS'from'
p3348
I3422
sS'e.g.'
p3349
I3472
sS'certificate'
p3350
I3112
sS'&'
I3425
sS'uso'
p3351
I1386
sS'chi'
p3352
I3427
sS'examined'
p3353
I4037
sS'guideline'
p3354
I3139
sS'few'
p3355
I3145
sS'duplicate'
p3356
I3430
sS'discretionary'
p3357
I4338
sS'attribute'
p3358
I1834
sS'representativity'
p3359
I1933
sS'panel'
p3360
I4218
sS'1,75'
p3361
I3084
sS'screening'
p3362
I1553
sS'ftp'
p3363
I3434
sS'on'
p3364
I3436
sS'started'
p3365
I3437
sS'becomes'
p3366
I3438
sS'inclined'
p3367
I3439
sS'pfm'
p3368
I3230
sS'occurred'
p3369
I3233
sS'visibility'
p3370
I3442
sS'transient'
p3371
I3254
sS'level-2'
p3372
I3444
sS'antennas'
p3373
I3445
sS'i=5'
p3374
I3446
sS'procuring'
p3375
I3447
sS'detects'
p3376
I3448
sS'firewall'
p3377
I3449
sS'had'
p3378
I207
sS'fan'
p3379
I2216
sS'account'
p3380
I3452
sS'defines'
p3381
I3453
sS'languages'
p3382
I3285
sS'this'
p3383
I3455
sS'challenge'
p3384
I3456
sS'discharges'
p3385
I297
sS'testability'
p3386
I3457
sS'pour'
p3387
I3458
sS'unknowns'
p3388
I3343
sS'prompts'
p3389
I3460
sS'plinth'
p3390
I1643
sS'obvious'
p3391
I3462
sS'thin'
p3392
I3463
sS'meet'
p3393
I3465
sS'closing'
p3394
I3466
sS'drops'
p3395
I3467
sS'performed'
p3396
I1256
sS'control'
p3397
I3469
sS'weaker'
p3398
I3470
sS'reserved'
p3399
I2416
sS'links'
p3400
I3423
sS'rinsing'
p3401
I3415
sS'calculation'
p3402
I2951
sS'aco'
p3403
I2420
sS're-collecting'
p3404
I3435
sS'purposes'
p3405
I3477
sS'pieces'
p3406
I3478
sS'high'
p3407
I3479
sS'effectively'
p3408
I3480
sS'his'
p3409
I2731
sS'tac'
p3410
I3483
sS'sought'
p3411
I3484
sS'tan'
p3412
I3485
sS'interrupted'
p3413
I3745
sS'msvf'
p3414
I3486
sS'\xe2\x80\x93x'
p3415
I3487
sS'dissectors'
p3416
I3488
sS'meanwhile'
p3417
I2735
sS'arrangement'
p3418
I3490
sS'delay'
p3419
I3491
sS'gcp'
p3420
I208
sS'procured'
p3421
I2439
sS'carrier'
p3422
I3494
sS'bus'
p3423
I4269
sS'instead'
p3424
I3495
sS'furnace'
p3425
I3496
sS'establishment'
p3426
I3497
sS'dd'
p3427
I3498
sS'modulations'
p3428
I3499
sS'stock'
p3429
I0
sS'profile'
p3430
I3501
sS'spacehab'
p3431
I3502
sS'blocks'
p3432
I3503
sS'neighbor'
p3433
I3504
sS'attend'
p3434
I3505
sS'specifications'
p3435
I3506
sS'db'
p3436
I3507
sS'collection'
p3437
I3508
sS'fluid'
p3438
I1626
sS'concentrations'
p3439
I3510
sS'redundancy'
p3440
I3511
sS'wrist'
p3441
I2990
sS'insufficient'
p3442
I4231
sS'tier'
p3443
I3514
sS'monitoring'
p3444
I3476
sS'message-based'
p3445
I3516
sS'da'
p3446
I3517
sS'ecss\xe2\x80\x90e\xe2\x80\x90st\xe2\x80\x9050\xe2\x80\x9001'
p3447
I3518
sS'paas'
p3448
I3519
sS'primers'
p3449
I3520
sS'dafni'
p3450
I3522
sS'lines'
p3451
I3523
sS'correspond'
p3452
I995
sS'redundant'
p3453
I3525
sS'or'
p3454
I2013
sS'2d'
p3455
I2659
sS'explosively'
p3456
I2359
sS'allow'
p3457
I3528
sS'mirrorlink'
p3458
I3529
sS'alloy'
p3459
I3530
sS'sub-items'
p3460
I3531
sS'fallback'
p3461
I2463
sS'software'
p3462
I4233
sS'discussion'
p3463
I444
sS'unavailability'
p3464
I3747
sS'preparing'
p3465
I3534
sS'pre-perforated'
p3466
I2344
sS'holds'
p3467
I3489
sS'saturated'
p3468
I3535
sS'comms'
p3469
I3536
sS'produces'
p3470
I3537
sS'volts'
p3471
I3538
sS'move'
p3472
I3539
sS'reserves'
p3473
I3540
sS'meter'
p3474
I3541
sS'interpreted'
p3475
I3542
sS'produced'
p3476
I3543
sS'tpm'
p3477
I3188
sS'own'
p3478
I4236
sS'including'
p3479
I3546
sS'activity\xe2\x80\x99s'
p3480
I3547
sS'horns'
p3481
I3548
sS'mentioned'
p3482
I3549
sS'groups'
p3483
I3550
sS'defects'
p3484
I3551
sS'bridges'
p3485
I1242
sS'negotiated'
p3486
I3553
sS'le'
p3487
I3554
sS'outer'
p3488
I2318
sS'located'
p3489
I3492
sS'chosen'
p3490
I3557
sS'masses'
p3491
I3558
sS'lm'
p3492
I1043
sS'gcs'
p3493
I3493
sS'accredited'
p3494
I3561
sS'whether'
p3495
I4287
sS'load-stress'
p3496
I3562
sS'permanent'
p3497
I3563
sS'choose'
p3498
I3564
sS'insulator'
p3499
I3565
sS'instruments'
p3500
I3566
sS'2015'
p3501
I3567
sS'eut'
p3502
I3568
sS'receptacles'
p3503
I3569
sS'conformance'
p3504
I3570
sS'<'
I3571
sS'pending'
p3505
I3572
sS'designs'
p3506
I3574
sS'junction'
p3507
I3575
sS'greater'
p3508
I3576
sS'outlined'
p3509
I3578
sS'material'
p3510
I3579
sS'post\xe2\x80\x90transformation'
p3511
I3580
sS'topsoil'
p3512
I3581
sS'5.2.2'
p3513
I3582
sS'electro'
p3514
I3583
sS'dap'
p3515
I3584
sS'28vdc'
p3516
I3585
sS'volt-'
p3517
I3586
sS'documented'
p3518
I3587
sS'transparent'
p3519
I2661
sS'connection_handle'
p3520
I3589
sS'articles'
p3521
I3590
sS'transmitter'
p3522
I3591
sS'sleeve'
p3523
I3592
sS'edit'
p3524
I3593
sS'parameter'
p3525
I1275
sS'identified'
p3526
I3595
sS'registrations'
p3527
I3596
sS'merge'
p3528
I3597
sS'slipping'
p3529
I3598
sS'2ei'
p3530
I137
sS'transmitted'
p3531
I3600
sS'mode'
p3532
I3601
sS'ecal'
p3533
I2830
sS'tubing'
p3534
I3603
sS'raised'
p3535
I1324
sS'identifier'
p3536
I3605
sS'glasses'
p3537
I3606
sS'subset'
p3538
I3607
sS'inputs'
p3539
I3608
sS'doing'
p3540
I3609
sS'wood'
p3541
I4005
sS'met'
p3542
I2125
sS'parties'
p3543
I2027
sS'programmed'
p3544
I3612
sS'related'
p3545
I3613
sS'bluetooth'
p3546
I2722
sS'constitute'
p3547
I3615
sS'frequency'
p3548
I3616
sS'static'
p3549
I3617
sS'variety'
p3550
I4079
sS'exceeded'
p3551
I685
sS'relates'
p3552
I3619
sS'margins'
p3553
I3620
sS'robot'
p3554
I3524
sS'special'
p3555
I3621
sS'out'
p3556
I3622
sS'category'
p3557
I3623
sS'sunlight'
p3558
I3624
sS'vcd'
p3559
I3625
sS'acknowledgment'
p3560
I2642
sS"'"
I3627
sS'house'
p3561
I3628
sS'repositioning'
p3562
I3629
sS'interferogram'
p3563
I3630
sS'parentaddress'
p3564
I3631
sS'rej'
p3565
I3632
sS'may'
p3566
I3633
sS'performs'
p3567
I26
sS'electronics'
p3568
I3635
sS'cause'
p3569
I40
sS'integrated'
p3570
I3637
sS'latching'
p3571
I2562
sS'pours'
p3572
I3639
sS'maintains'
p3573
I91
sS'dman'
p3574
I3641
sS'diagonal'
p3575
I3642
sS'undo'
p3576
I3643
sS'strap'
p3577
I3644
sS'ban'
p3578
I3645
sS'completely'
p3579
I116
sS'de-registered'
p3580
I3647
sS'ecs'
p3581
I3648
sS'auto_accept_flag'
p3582
I1411
sS'10\xc2\xbac'
p3583
I833
sS'thrust'
p3584
I291
sS'business'
p3585
I3652
sS'log'
p3586
I2033
sS'corrosion'
p3587
I170
sS'organic'
p3588
I172
sS'g'
I3656
sS'uncharacterised'
p3589
I3657
sS'geometry'
p3590
I3658
sS'determining'
p3591
I193
sS'could'
p3592
I2368
sS'diminished'
p3593
I3661
sS'timer'
p3594
I3662
sS'times'
p3595
I1298
sS'length'
p3596
I3664
sS'demating'
p3597
I3665
sS'electrical-connector'
p3598
I2220
sS'qualification'
p3599
I3667
sS'qualifying'
p3600
I2646
sS'barriers'
p3601
I243
sS'fatigue'
p3602
I3512
sS'repeats'
p3603
I253
sS'deviates'
p3604
I3672
sS'degree'
p3605
I3361
sS'prospective'
p3606
I3673
sS'anodizing'
p3607
I3674
sS'succeeds'
p3608
I290
sS'describes'
p3609
I3677
sS'metering'
p3610
I3678
sS'input_coding_format'
p3611
I865
sS'ars'
p3612
I3680
sS'hertz'
p3613
I3681
sS'ties'
p3614
I3515
sS'owner'
p3615
I3682
sS'decides'
p3616
I3683
sS'precisely'
p3617
I3684
sS'quality'
p3618
I3685
sS'reliable'
p3619
I3686
sS'owning'
p3620
I3687
sS'aperture'
p3621
I3688
sS'initialization'
p3622
I3689
sS'management'
p3623
I3690
sS'publication'
p3624
I387
sS'practitioners'
p3625
I3692
sS'strict'
p3626
I3693
sS'unknown'
p3627
I3694
sS'demonstration'
p3628
I3754
sS'sep'
p3629
I3696
sS'traveller'
p3630
I411
sS'system'
p3631
I3698
sS'adopted'
p3632
I3699
sS'realistically'
p3633
I2860
sS'casting'
p3634
I2756
sS'attach'
p3635
I430
sS'intermediate'
p3636
I3703
sS'lacing'
p3637
I3704
sS'final'
p3638
I3705
sS'townsend'
p3639
I3706
sS'inner'
p3640
I4261
sS'sealed'
p3641
I2044
sS'ambiguous'
p3642
I3708
sS'bit'
p3643
I3038
sS'unoccupied'
p3644
I506
sS'stresses'
p3645
I3712
sS'flemish'
p3646
I3559
sS'pressurized'
p3647
I522
sS'chemicals'
p3648
I3716
sS'!'
I3717
sS'area-to-mass'
p3649
I3718
sS'simulate'
p3650
I3719
sS'manipulation'
p3651
I3720
sS'constituent'
p3652
I3721
sS'UNK'
p3653
I4364
sS'greenhouse'
p3654
I3816
sS'commence'
p3655
I561
sS'updating'
p3656
I3723
sS'steel'
p3657
I3724
sS'detection'
p3658
I3725
sS'bid'
p3659
I3031
sS'slack'
p3660
I377
sS'isolation'
p3661
I3727
sS'coast'
p3662
I3728
sS'bed'
p3663
I614
sS'limiting'
p3664
I3730
sS'arc'
p3665
I3731
sS'observer'
p3666
I3691
sS'amplitude'
p3667
I3732
sS'ber'
p3668
I3733
sS'visited'
p3669
I415
sS'providing'
p3670
I651
sS'undergo'
p3671
I3736
sS'are'
p3672
I2771
sS'collecting'
p3673
I3738
sS'cryopreserved'
p3674
I3739
sS'enforced'
p3675
I3740
sS'conflicts'
p3676
I3651
sS'false'
p3677
I1284
sS'loopback'
p3678
I3743
sS'encodings'
p3679
I3618
sS'curves'
p3680
I3744
sS'liner'
p3681
I3336
sS'fail'
p3682
I3746
sS'connectors'
p3683
I718
sS'delineated'
p3684
I3748
sS'authorities'
p3685
I2023
sS'close'
p3686
I2774
sS'need'
p3687
I3751
sS'constrained'
p3688
I748
sS'border'
p3689
I2465
sS'levelled'
p3690
I755
sS'viewed'
p3691
I3756
sS'acceleration'
p3692
I3757
sS'instrumentation'
p3693
I3758
sS'counter'
p3694
I3759
sS'2.0'
p3695
I2776
sS'angle'
p3696
I3761
sS'soak'
p3697
I3762
sS'vaw'
p3698
I4263
sS'optimum'
p3699
I3763
sS'agency'
p3700
I3764
sS'0x00'
p3701
I2853
sS'accelerated'
p3702
I3573
sS'0x02'
p3703
I810
sS'cross-border'
p3704
I3768
sS'polarization'
p3705
I3769
sS'mix'
p3706
I820
sS'relatives'
p3707
I3771
sS'issuing'
p3708
I3772
sS'coronagraph'
p3709
I3773
sS'tubing/conduit'
p3710
I835
sS'beo'
p3711
I3726
sS'reactions'
p3712
I3776
sS'detector'
p3713
I3777
sS'soap'
p3714
I852
sS'accuracy'
p3715
I3779
sS'synchronisations'
p3716
I3780
sS'unless'
p3717
I3781
sS'enveloped'
p3718
I2779
sS'expires'
p3719
I897
sS'greased'
p3720
I3784
sS'dockings'
p3721
I3785
sS'combustion'
p3722
I3786
sS'propagate'
p3723
I922
sS'but'
p3724
I4271
sS'device'
p3725
I3789
sS'future'
p3726
I1531
sS'segment'
p3727
I948
sS'subsequently'
p3728
I3532
sS'64-bit'
p3729
I1864
sS'thermally'
p3730
I3475
sS'volume'
p3731
I4272
sS'connectionless'
p3732
I979
sS'igniter'
p3733
I3795
sS'nonce'
p3734
I3713
sS'stranded'
p3735
I3797
sS'stronger'
p3736
I1000
sS'disease'
p3737
I1108
sS'pipe'
p3738
I3800
sS'exhaustive'
p3739
I3172
sS'lowered'
p3740
I3801
sS'uscrn'
p3741
I3802
sS'clipping'
p3742
I3059
sS'diagnostics'
p3743
I1660
sS'highest'
p3744
I4277
sS'normally'
p3745
I3805
sS'0x0c'
p3746
I3806
sS'atmosphere'
p3747
I3807
sS'selection'
p3748
I3808
sS'contaminant'
p3749
I1084
sS'agreed'
p3750
I3811
sS'supported'
p3751
I3812
sS'terminate'
p3752
I3813
sS'chapters'
p3753
I3814
sS'tsrv'
p3754
I3815
sS'ki'
p3755
I2685
sS'parked'
p3756
I2571
sS'unreliable'
p3757
I3817
sS'pyroelectrical'
p3758
I1318
sS'high-level'
p3759
I3819
sS'bakeout'
p3760
I3820
sS'principal'
p3761
I1141
sS'nominally'
p3762
I3822
sS'partners'
p3763
I3823
sS'affects'
p3764
I3824
sS'based'
p3765
I3825
sS'knowledge'
p3766
I3826
sS'pressures'
p3767
I3827
sS'holder'
p3768
I3828
sS'0x01'
p3769
I3766
sS'inserted'
p3770
I3830
sS'controls'
p3771
I3831
sS'operational'
p3772
I1184
sS'terminal'
p3773
I1186
sS'reactive'
p3774
I860
sS'resubmit'
p3775
I3835
sS'tape'
p3776
I3836
sS'molecules'
p3777
I3838
sS'inherited'
p3778
I3839
sS'attained'
p3779
I3840
sS'employed'
p3780
I3841
sS'chinese'
p3781
I2169
sS'b'
I3376
sS'local'
p3782
I3843
sS'stored'
p3783
I4107
sS'mortality'
p3784
I148
sS'equilibrium'
p3785
I3845
sS'meant'
p3786
I3846
sS'abused'
p3787
I3847
sS'loss'
p3788
I4150
sS'handle'
p3789
I3848
sS'means'
p3790
I3849
sS'familiar'
p3791
I1270
sS'overall'
p3792
I3851
sS'tbt'
p3793
I3852
sS'arcing'
p3794
I3853
sS'likely'
p3795
I1087
sS'120'
p3796
I3855
sS'joint'
p3797
I1302
sS'terminus'
p3798
I2847
sS'127'
p3799
I1322
sS'timing'
p3800
I3859
sS'tbc'
p3801
I3860
sS'years'
p3802
I3861
sS'procedures'
p3803
I1344
sS'areas'
p3804
I3863
sS'symbols'
p3805
I3864
sS'gbd'
p3806
I1362
sS'subclauses'
p3807
I3866
sS'drop_frame'
p3808
I3867
sS'encounters'
p3809
I633
sS'differential'
p3810
I3869
sS'rosin-based'
p3811
I3870
sS'calling'
p3812
I3871
sS'hollow'
p3813
I2840
sS'default'
p3814
I2067
sS'she'
p3815
I1423
sS'shf'
p3816
I3874
sS'contain'
p3817
I3875
sS'unfeasible'
p3818
I3876
sS'calls'
p3819
I2147
sS'cycles'
p3820
I1444
sS'nist'
p3821
I3878
sS'caches'
p3822
I1458
sS'conform'
p3823
I388
sS'requirement'
p3824
I3881
sS'nitrogen'
p3825
I2112
sS'exists'
p3826
I3883
sS'catastrophic'
p3827
I1494
sS'configured'
p3828
I2843
sS'humans'
p3829
I1504
sS'module'
p3830
I1511
sS'operates'
p3831
I3888
sS'intensity'
p3832
I3889
sS'computer'
p3833
I3144
sS'enhanced'
p3834
I3891
sS'operated'
p3835
I3892
sS'audits'
p3836
I3893
sS'authenticated_payload_timeout'
p3837
I3894
sS'nlme-leave.confirm'
p3838
I3895
sS'awaits'
p3839
I1566
sS'phases'
p3840
I3897
sS'consolidating'
p3841
I2469
sS'focuses'
p3842
I3900
sS'record'
p3843
I4293
sS'nuclear'
p3844
I1599
sS'missing'
p3845
I3903
sS'bias'
p3846
I3904
sS'ensures'
p3847
I4207
sS'targeted'
p3848
I2800
sS'state'
p3849
I1625
sS'identification'
p3850
I3907
sS'routing'
p3851
I1633
sS'correctly'
p3852
I1636
sS'routine'
p3853
I1637
sS'understood'
p3854
I3911
sS's-frame'
p3855
I2076
sS'boundary'
p3856
I3913
sS'wait_f'
p3857
I3914
sS'midnight'
p3858
I3850
sS'drain'
p3859
I3133
sS'ends'
p3860
I3916
sS'javascript'
p3861
I2803
sS'explosive'
p3862
I3918
sS'reproduced'
p3863
I2444
sS'horizontally'
p3864
I3920
sS"system's"
p3865
I3921
sS'deliver'
p3866
I3923
sS'hpa'
p3867
I4333
sS'efficiency'
p3868
I3924
sS'rules'
p3869
I3925
sS'p2p'
p3870
I3926
sS'key'
p3871
I3927
sS'encryption'
p3872
I3928
sS'approval'
p3873
I1754
sS'configuration'
p3874
I3930
sS'modification'
p3875
I2944
sS'distribution'
p3876
I4300
sS'redispatch'
p3877
I3933
sS'o-req4.2-1'
p3878
I3934
sS'restrictions'
p3879
I3935
sS'commands'
p3880
I3936
sS'proof-pressure'
p3881
I3937
sS'sniff'
p3882
I3938
sS'limits'
p3883
I3939
sS'freely'
p3884
I3940
sS'taking'
p3885
I3941
sS'ramp'
p3886
I3942
sS'aircraft'
p3887
I2806
sS'boulders'
p3888
I3944
sS'shipment'
p3889
I3945
sS'strains'
p3890
I3946
sS'behaviour'
p3891
I2279
sS'estimation'
p3892
I3948
sS'safely'
p3893
I3949
sS'trajectories'
p3894
I3950
sS'otherwise'
p3895
I3951
sS'chutes'
p3896
I3952
sS'vent'
p3897
I3953
sS'adjusted'
p3898
I1886
sS'relevant'
p3899
I3955
sS'immerged'
p3900
I1899
sS'wall'
p3901
I3957
sS'ca'
p3902
I3958
sS'5.1.4.2'
p3903
I3959
sS'cf'
p3904
I3960
sS'environments'
p3905
I3961
sS'cd'
p3906
I3962
sS'packaging'
p3907
I3963
sS'maximize'
p3908
I3964
sS'sequences'
p3909
I3965
sS'disturbing'
p3910
I3750
sS'respect'
p3911
I2289
sS'allocated'
p3912
I3967
sS'holdto'
p3913
I3968
sS'withdrawn'
p3914
I3969
sS'trays'
p3915
I3970
sS'post-fault'
p3916
I3971
sS'8.0'
p3917
I1983
sS'1423'
p3918
I3973
sS'i.e.'
p3919
I3975
sS'keying'
p3920
I3976
sS'cavities'
p3921
I1998
sS'powered'
p3922
I3978
sS'addition'
p3923
I3979
sS'trajectory'
p3924
I3980
sS'window'
p3925
I1351
sS'responds'
p3926
I2025
sS'underlying'
p3927
I3983
sS'6'
I3984
sS'slowly'
p3928
I3985
sS'agreements'
p3929
I3986
sS'recognize'
p3930
I3257
sS'indicators'
p3931
I2056
sS'proposal'
p3932
I2062
sS'anomaly'
p3933
I3990
sS'partial'
p3934
I3991
sS'closed'
p3935
I3909
sS'tissues'
p3936
I3993
sS'corresponding'
p3937
I1219
sS'c.'
p3938
I3995
sS'maneuvers'
p3939
I3996
sS'route'
p3940
I3660
sS'sufficient'
p3941
I3997
sS'various'
p3942
I3917
sS'bulk'
p3943
I3998
sS'controller'
p3944
I2152
sS'deep'
p3945
I2703
sS'covered'
p3946
I4001
sS'consecutive'
p3947
I3858
sS'assessments'
p3948
I4002
sS'an'
p3949
I4003
sS'present'
p3950
I4004
sS'reverse'
p3951
I2816
sS'discarded'
p3952
I3073
sS'multi'
p3953
I4006
sS'encompassed'
p3954
I4007
sS'laser'
p3955
I4008
sS'abandoned'
p3956
I4009
sS'subsets'
p3957
I4010
sS'defining'
p3958
I3653
sS'runway'
p3959
I4012
sS'triggers'
p3960
I653
sS'appearance'
p3961
I4013
sS'examine'
p3962
I4014
sS'value'
p3963
I4015
sS'will'
p3964
I4016
sS'ar'
p3965
I4017
sS'engine-specific'
p3966
I4018
sS'2013'
p3967
I4019
sS'fault'
p3968
I4020
sS'wild'
p3969
I537
sS'guaranteed'
p3970
I3012
sS'digits'
p3971
I4022
sS'periods'
p3972
I4316
sS'layer'
p3973
I4024
sS'vc'
p3974
I4025
sS'immersions'
p3975
I2245
sS'manually'
p3976
I4028
sS'resident'
p3977
I4029
sS'registered'
p3978
I4030
sS'thus'
p3979
I4031
sS'site'
p3980
I4032
sS'surface'
p3981
I4033
sS'interrogate'
p3982
I4034
sS'hardware'
p3983
I4035
sS'draining'
p3984
I4036
sS'arrangements'
p3985
I2367
sS'sheath'
p3986
I4038
sS'partner'
p3987
I1442
sS'inspector'
p3988
I4040
sS'inter-system'
p3989
I3544
sS'descriptive'
p3990
I4041
sS'summarize'
p3991
I1787
sS'generic'
p3992
I2438
sS'infrared-transparent'
p3993
I4044
sS"peer's"
p3994
I12
sS'indistinguishable'
p3995
I2450
sS'access'
p3996
I3349
sS'member'
p3997
I4048
sS'parts'
p3998
I4049
sS'neutralizer'
p3999
I4050
sS'inch'
p4000
I2479
sS'finite'
p4001
I2486
sS'tapped'
p4002
I1315
sS'infer'
p4003
I4054
sS'mildly'
p4004
I1044
sS'0.1'
p4005
I4056
sS'slave'
p4006
I2519
sS'context'
p4007
I4058
sS'absorb'
p4008
I4059
sS'cof'
p4009
I1338
sS'upon'
p4010
I4062
sS'effect'
p4011
I4063
sS'forecasts'
p4012
I4064
sS'ion'
p4013
I4065
sS'assessing'
p4014
I4066
sS'14.7'
p4015
I4138
sS'robotic'
p4016
I2579
sS'frequently'
p4017
I4068
sS'vapour'
p4018
I4069
sS'ioc'
p4019
I4070
sS'identity'
p4020
I2603
sS'keep'
p4021
I3663
sS'numbered'
p4022
I2611
sS'weld'
p4023
I2623
sS'center'
p4024
I4074
sS'uri'
p4025
I3799
sS'fully'
p4026
I2489
sS'i'
I4077
sS'uml'
p4027
I4078
sS'modeled'
p4028
I2638
sS'well'
p4029
I4080
sS'transmissions'
p4030
I1366
sS'procurement'
p4031
I4082
sS'protocol\xe2\x80\x99s'
p4032
I4083
sS'1'
I4084
sS'command'
p4033
I4085
sS'english'
p4034
I2666
sS'hazard'
p4035
I3649
sS'position'
p4036
I4089
sS'audio'
p4037
I4090
sS'sensing'
p4038
I2684
sS'drivers'
p4039
I2111
sS'1.25'
p4040
I4093
sS'latest'
p4041
I4094
sS'advertises'
p4042
I4095
sS'restore'
p4043
I4096
sS'bottom'
p4044
I4097
sS'stores'
p4045
I2709
sS'linked'
p4046
I3755
sS'building\xe2\x80\x90up'
p4047
I3283
sS'proximity'
p4048
I2730
sS'necessitate'
p4049
I2740
sS'tcp'
p4050
I4103
sS'cultivable'
p4051
I4104
sS'inadequate'
p4052
I4310
sS'sources'
p4053
I4105
sS'batteries'
p4054
I4106
sS'mistakes'
p4055
I21
sS'voltage'
p4056
I4108
sS'protecting'
p4057
I4109
sS'envisaged'
p4058
I4328
sS'coordination'
p4059
I2787
sS'unplugged'
p4060
I4111
sS'web'
p4061
I4112
sS'redistributed'
p4062
I4114
sS'density'
p4063
I4115
sS'elicitation'
p4064
I4116
sS'operands'
p4065
I4117
sS'point'
p4066
I4118
sS'shear-section'
p4067
I2837
sS'lake'
p4068
I4120
sS'capabilities'
p4069
I4121
sS'day'
p4070
I3588
sS'battery'
p4071
I2836
sS'add'
p4072
I4124
sS'onwards'
p4073
I4125
sS'stress/force'
p4074
I4126
sS'adc'
p4075
I2871
sS'air-ground'
p4076
I4128
sS'crack'
p4077
I1330
sS'smart'
p4078
I2905
sS'match'
p4079
I927
sS'details'
p4080
I4331
sS'identical'
p4081
I4133
sS'tests'
p4082
I4134
sS'nvr'
p4083
I2929
sS'criticality'
p4084
I3577
sS'isolators'
p4085
I4137
sS'caller'
p4086
I3179
sS'execute'
p4087
I1882
sS'desiccators'
p4088
I4139
sS'increases'
p4089
I4140
sS'five'
p4090
I4141
sS'know'
p4091
I4142
sS'desk'
p4092
I3695
sS'belgium'
p4093
I4144
sS'redesign'
p4094
I2365
sS'variants'
p4095
I4146
sS'coincidence'
p4096
I2752
sS'underlined'
p4097
I4148
sS'igm'
p4098
I4149
sS'insert'
p4099
I3036
sS'6012'
p4100
I4151
sS'necessary'
p4101
I4152
sS'helpful'
p4102
I4153
sS'transmitting'
p4103
I3364
sS'sizes'
p4104
I4155
sS'units'
p4105
I4051
sS'sized'
p4106
I2937
sS're-verified'
p4107
I4158
sS'fpga'
p4108
I1800
sS'have'
p4109
I3749
sS'lose'
p4110
I524
sS'0xff'
p4111
I4162
sS'become'
p4112
I4163
sS'ad-'
p4113
I4164
sS'soft'
p4114
I4165
sS'page'
p4115
I4166
sS'replacement'
p4116
I4167
sS'accessible'
p4117
I4168
sS'deviation'
p4118
I3809
sS'17025'
p4119
I3132
sS'because'
p4120
I4171
sS'retransmit'
p4121
I3142
sS'sequence'
p4122
I4173
sS"device's"
p4123
I3162
sS'searching'
p4124
I4175
sS'library'
p4125
I878
sS'zeroes'
p4126
I4177
sS'hydrazine'
p4127
I3177
sS'scad'
p4128
I2379
sS'growth'
p4129
I4179
sS'flush'
p4130
I3198
sS'proper'
p4131
I4181
sS'home'
p4132
I4182
sS'transport'
p4133
I4183
sS'glyph'
p4134
I4184
sS'happens'
p4135
I4185
sS'trust'
p4136
I1880
sS'tmt'
p4137
I4187
sS'lead'
p4138
I4188
sS'realistic'
p4139
I3334
sS'leak'
p4140
I4190
sS'avoid'
p4141
I4191
sS'annex'
p4142
I4192
sS'octet'
p4143
I4193
sS'inhibit'
p4144
I4194
sS'instantaneous'
p4145
I4195
sS'esd'
p4146
I3287
sS'esa'
p4147
I4197
sS'assuming'
p4148
I4198
sS'hand-mixing'
p4149
I4199
sS'warned'
p4150
I3594
sS'?'
I3319
sS'preload'
p4151
I3326
sS'noise'
p4152
I4202
sS'coated'
p4153
I4203
sS'schedule'
p4154
I3298
sS'routers'
p4155
I1676
sS'vnominal'
p4156
I4206
sS'analysed'
p4157
I538
sS'expansion'
p4158
I3372
sS'likewise'
p4159
I4087
sS'pressure'
p4160
I4210
sS'host'
p4161
I4211
sS'variation'
p4162
I4341
sS'0xffff'
p4163
I4213
sS'offset'
p4164
I4214
sS'802.11'
p4165
I4215
sS'analyses'
p4166
I4216
sS'r'
I4217
sS'identifies'
p4167
I3604
sS'science'
p4168
I2695
sS'ndi'
p4169
I4219
sS'exhibit'
p4170
I3752
sS'actual'
p4171
I4221
sS'boards'
p4172
I3450
sS'embryos'
p4173
I4223
sS'subpacket'
p4174
I4224
sS'longest'
p4175
I4225
sS'conveyor'
p4176
I2854
sS'nde'
p4177
I4226
sS'recognized'
p4178
I4227
sS'surge'
p4179
I4228
sS'compatible'
p4180
I4229
sS'statement'
p4181
I2604
sS'synchronization'
p4182
I3527
sS'discard'
p4183
I3513
sS'36-bit'
p4184
I3327
sS'6.1.4.1.2a'
p4185
I2475
sS'peak'
p4186
I2136
sS'31,8'
p4187
I4234
sS'equally'
p4188
I4235
sS'alliance'
p4189
I3545
sS'additionally'
p4190
I4344
sS'keeps'
p4191
I4238
sS'previously'
p4192
I4239
sS'preexisting'
p4193
I4240
sS'submits'
p4194
I4241
sS'functional'
p4195
I4242
sS'cleared'
p4196
I1585
sS'guard'
p4197
I4243
sS'termini'
p4198
I4244
sS'national'
p4199
I4245
sS'registration'
p4200
I4246
sS'owners'
p4201
I2555
sS'initially'
p4202
I3905
sS'significantly'
p4203
I4248
sS'descriptions'
p4204
I4249
sS'1.15'
p4205
I4250
sS'subassemblies'
p4206
I4251
sS'additional'
p4207
I4252
sS'elastic'
p4208
I4253
sS'stainless'
p4209
I3668
sS'housing'
p4210
I4255
sS'pairing'
p4211
I4256
sS'spiral'
p4212
I4257
sS'noticed'
p4213
I4023
sS'serviceclassidlist'
p4214
I3676
sS'fuses'
p4215
I2863
sS'try'
p4216
I3482
sS'exposure'
p4217
I4262
sS'chunk'
p4218
I3610
sS'9.3'
p4219
I3041
sS'function'
p4220
I4265
sS'ireland'
p4221
I2866
sS'triggered'
p4222
I4267
sS'2812'
p4223
I4268
sS'funds'
p4224
I3775
sS'hazardous'
p4225
I4270
sS'overlapping'
p4226
I3788
sS'forward'
p4227
I3154
sS'delivery'
p4228
I3793
sS'repeated'
p4229
I877
sS'construction'
p4230
I85
sS'automated'
p4231
I4276
sS'inverted'
p4232
I3614
sS'adhesive'
p4233
I4278
sS'b.7.1'
p4234
I652
sS'b.7.2'
p4235
I3837
sS'he'
p4236
I3842
sS'count'
p4237
I4282
sS'self-rescue'
p4238
I4283
sS'made'
p4239
I4284
sS'converter'
p4240
I1583
sS'evident'
p4241
I4286
sS'grommet'
p4242
I3872
sS'meeting'
p4243
I2870
sS'cells'
p4244
I4289
sS'variations'
p4245
I751
sS'0x4000'
p4246
I3464
sS'signed'
p4247
I4292
sS'placed'
p4248
I3901
sS'below'
p4249
I4294
sS'converted'
p4250
I4295
sS'stories'
p4251
I3912
sS'pumped'
p4252
I3922
sS'sig\xe2\x80\x99s'
p4253
I4298
sS'demonstrate'
p4254
I4299
sS'problem'
p4255
I3932
sS'lubricated'
p4256
I4301
sS'minutes'
p4257
I4302
sS'display'
p4258
I4303
sS'bandpass'
p4259
I4304
sS'hz'
p4260
I4275
sS'bearing'
p4261
I4306
sS'penetrating'
p4262
I4307
sS'pim'
p4263
I4308
sS'pin'
p4264
I4309
sS'cadmdd'
p4265
I4320
sS'curve'
p4266
I2151
sS'universal'
p4267
I4311
sS'measure'
p4268
I1904
sS'pid'
p4269
I4313
sS'meaningless'
p4270
I4314
sS'cored'
p4271
I2153
sS'in-between'
p4272
I4317
sS's_fanauto'
p4273
I4318
sS'sneak'
p4274
I4319
sS'recommendations'
p4275
I3640
sS'authority'
p4276
I4176
sS'effected'
p4277
I4321
sS'functions'
p4278
I4322
sS'avoided'
p4279
I3468
sS'br/edr'
p4280
I4324
sS'49'
p4281
I63
sS'percent'
p4282
I3011
sS'virtual'
p4283
I4327
sS'adequately'
p4284
I1403
sS'assessors'
p4285
I4329
sS'inhibited'
p4286
I2156
sS'scid'
p4287
I4132
sS'u'
I4332
sS'acrylic'
p4288
I2419
sS'clicks'
p4289
I4334
sS'conclusion'
p4290
I4335
sS'repeat'
p4291
I4336
sS'star'
p4292
I1459
sS'plate'
p4293
I3473
sS'flaked'
p4294
I4339
sS'remains'
p4295
I3426
sS'shown'
p4296
I1407
sS'inherently'
p4297
I4212
sS'in-'
p4298
I4342
sS'flight-like'
p4299
I4343
sS'affixed'
p4300
I703
sS'dvd-audio'
p4301
I4237
sS'lt_addr'
p4302
I4345
sS'spacing'
p4303
I3365
sS'survey'
p4304
I4346
sS'matrix'
p4305
I3626
sS'appoint'
p4306
I4348
sS'\xe2\x80\x90'
p4307
I4349
sS'silica'
p4308
I4360
sS'\xe2\x80\x99'
p4309
I4351
sS'oral'
p4310
I2162
sS'processed'
p4311
I3873
sS'\xe2\x80\x9d'
p4312
I4354
sS'\xe2\x80\x9c'
p4313
I4355
sS'rule'
p4314
I4356
sS'strings'
p4315
I4357
sS'portion'
p4316
I4358
sS'write'
p4317
I3552
sS'volumes'
p4318
I4359
sS'validation'
p4319
I4350
sS'4b'
p4320
I4361
sS'indirectly'
p4321
I4362
sS'4a'
p4322
I2384
s.